
./bomb:     file format elf64-x86-64


Disassembly of section .init:

0000000000002000 <_init>:
    2000:	f3 0f 1e fa          	repz nop %edx
    2004:	48 83 ec 08          	sub    $0x8,%rsp
    2008:	48 8b 05 d9 3f 00 00 	mov    0x3fd9(%rip),%rax        # 5fe8 <__gmon_start__>
    200f:	48 85 c0             	test   %rax,%rax
    2012:	74 02                	je     2016 <_init+0x16>
    2014:	ff d0                	callq  *%rax
    2016:	48 83 c4 08          	add    $0x8,%rsp
    201a:	c3                   	retq   

Disassembly of section .plt:

0000000000002020 <getenv@plt-0x10>:
    2020:	ff 35 e2 3f 00 00    	pushq  0x3fe2(%rip)        # 6008 <_GLOBAL_OFFSET_TABLE_+0x8>
    2026:	ff 25 e4 3f 00 00    	jmpq   *0x3fe4(%rip)        # 6010 <_GLOBAL_OFFSET_TABLE_+0x10>
    202c:	0f 1f 40 00          	nopl   0x0(%rax)

0000000000002030 <getenv@plt>:
    2030:	ff 25 e2 3f 00 00    	jmpq   *0x3fe2(%rip)        # 6018 <getenv@GLIBC_2.2.5>
    2036:	68 00 00 00 00       	pushq  $0x0
    203b:	e9 e0 ff ff ff       	jmpq   2020 <_init+0x20>

0000000000002040 <strcasecmp@plt>:
    2040:	ff 25 da 3f 00 00    	jmpq   *0x3fda(%rip)        # 6020 <strcasecmp@GLIBC_2.2.5>
    2046:	68 01 00 00 00       	pushq  $0x1
    204b:	e9 d0 ff ff ff       	jmpq   2020 <_init+0x20>

0000000000002050 <__errno_location@plt>:
    2050:	ff 25 d2 3f 00 00    	jmpq   *0x3fd2(%rip)        # 6028 <__errno_location@GLIBC_2.2.5>
    2056:	68 02 00 00 00       	pushq  $0x2
    205b:	e9 c0 ff ff ff       	jmpq   2020 <_init+0x20>

0000000000002060 <strcpy@plt>:
    2060:	ff 25 ca 3f 00 00    	jmpq   *0x3fca(%rip)        # 6030 <strcpy@GLIBC_2.2.5>
    2066:	68 03 00 00 00       	pushq  $0x3
    206b:	e9 b0 ff ff ff       	jmpq   2020 <_init+0x20>

0000000000002070 <puts@plt>:
    2070:	ff 25 c2 3f 00 00    	jmpq   *0x3fc2(%rip)        # 6038 <puts@GLIBC_2.2.5>
    2076:	68 04 00 00 00       	pushq  $0x4
    207b:	e9 a0 ff ff ff       	jmpq   2020 <_init+0x20>

0000000000002080 <write@plt>:
    2080:	ff 25 ba 3f 00 00    	jmpq   *0x3fba(%rip)        # 6040 <write@GLIBC_2.2.5>
    2086:	68 05 00 00 00       	pushq  $0x5
    208b:	e9 90 ff ff ff       	jmpq   2020 <_init+0x20>

0000000000002090 <strlen@plt>:
    2090:	ff 25 b2 3f 00 00    	jmpq   *0x3fb2(%rip)        # 6048 <strlen@GLIBC_2.2.5>
    2096:	68 06 00 00 00       	pushq  $0x6
    209b:	e9 80 ff ff ff       	jmpq   2020 <_init+0x20>

00000000000020a0 <__stack_chk_fail@plt>:
    20a0:	ff 25 aa 3f 00 00    	jmpq   *0x3faa(%rip)        # 6050 <__stack_chk_fail@GLIBC_2.4>
    20a6:	68 07 00 00 00       	pushq  $0x7
    20ab:	e9 70 ff ff ff       	jmpq   2020 <_init+0x20>

00000000000020b0 <printf@plt>:
    20b0:	ff 25 a2 3f 00 00    	jmpq   *0x3fa2(%rip)        # 6058 <printf@GLIBC_2.2.5>
    20b6:	68 08 00 00 00       	pushq  $0x8
    20bb:	e9 60 ff ff ff       	jmpq   2020 <_init+0x20>

00000000000020c0 <alarm@plt>:
    20c0:	ff 25 9a 3f 00 00    	jmpq   *0x3f9a(%rip)        # 6060 <alarm@GLIBC_2.2.5>
    20c6:	68 09 00 00 00       	pushq  $0x9
    20cb:	e9 50 ff ff ff       	jmpq   2020 <_init+0x20>

00000000000020d0 <close@plt>:
    20d0:	ff 25 92 3f 00 00    	jmpq   *0x3f92(%rip)        # 6068 <close@GLIBC_2.2.5>
    20d6:	68 0a 00 00 00       	pushq  $0xa
    20db:	e9 40 ff ff ff       	jmpq   2020 <_init+0x20>

00000000000020e0 <read@plt>:
    20e0:	ff 25 8a 3f 00 00    	jmpq   *0x3f8a(%rip)        # 6070 <read@GLIBC_2.2.5>
    20e6:	68 0b 00 00 00       	pushq  $0xb
    20eb:	e9 30 ff ff ff       	jmpq   2020 <_init+0x20>

00000000000020f0 <fgets@plt>:
    20f0:	ff 25 82 3f 00 00    	jmpq   *0x3f82(%rip)        # 6078 <fgets@GLIBC_2.2.5>
    20f6:	68 0c 00 00 00       	pushq  $0xc
    20fb:	e9 20 ff ff ff       	jmpq   2020 <_init+0x20>

0000000000002100 <strcmp@plt>:
    2100:	ff 25 7a 3f 00 00    	jmpq   *0x3f7a(%rip)        # 6080 <strcmp@GLIBC_2.2.5>
    2106:	68 0d 00 00 00       	pushq  $0xd
    210b:	e9 10 ff ff ff       	jmpq   2020 <_init+0x20>

0000000000002110 <signal@plt>:
    2110:	ff 25 72 3f 00 00    	jmpq   *0x3f72(%rip)        # 6088 <signal@GLIBC_2.2.5>
    2116:	68 0e 00 00 00       	pushq  $0xe
    211b:	e9 00 ff ff ff       	jmpq   2020 <_init+0x20>

0000000000002120 <gethostbyname@plt>:
    2120:	ff 25 6a 3f 00 00    	jmpq   *0x3f6a(%rip)        # 6090 <gethostbyname@GLIBC_2.2.5>
    2126:	68 0f 00 00 00       	pushq  $0xf
    212b:	e9 f0 fe ff ff       	jmpq   2020 <_init+0x20>

0000000000002130 <fprintf@plt>:
    2130:	ff 25 62 3f 00 00    	jmpq   *0x3f62(%rip)        # 6098 <fprintf@GLIBC_2.2.5>
    2136:	68 10 00 00 00       	pushq  $0x10
    213b:	e9 e0 fe ff ff       	jmpq   2020 <_init+0x20>

0000000000002140 <fflush@plt>:
    2140:	ff 25 5a 3f 00 00    	jmpq   *0x3f5a(%rip)        # 60a0 <fflush@GLIBC_2.2.5>
    2146:	68 11 00 00 00       	pushq  $0x11
    214b:	e9 d0 fe ff ff       	jmpq   2020 <_init+0x20>

0000000000002150 <__isoc99_sscanf@plt>:
    2150:	ff 25 52 3f 00 00    	jmpq   *0x3f52(%rip)        # 60a8 <__isoc99_sscanf@GLIBC_2.7>
    2156:	68 12 00 00 00       	pushq  $0x12
    215b:	e9 c0 fe ff ff       	jmpq   2020 <_init+0x20>

0000000000002160 <memmove@plt>:
    2160:	ff 25 4a 3f 00 00    	jmpq   *0x3f4a(%rip)        # 60b0 <memmove@GLIBC_2.2.5>
    2166:	68 13 00 00 00       	pushq  $0x13
    216b:	e9 b0 fe ff ff       	jmpq   2020 <_init+0x20>

0000000000002170 <fopen@plt>:
    2170:	ff 25 42 3f 00 00    	jmpq   *0x3f42(%rip)        # 60b8 <fopen@GLIBC_2.2.5>
    2176:	68 14 00 00 00       	pushq  $0x14
    217b:	e9 a0 fe ff ff       	jmpq   2020 <_init+0x20>

0000000000002180 <gethostname@plt>:
    2180:	ff 25 3a 3f 00 00    	jmpq   *0x3f3a(%rip)        # 60c0 <gethostname@GLIBC_2.2.5>
    2186:	68 15 00 00 00       	pushq  $0x15
    218b:	e9 90 fe ff ff       	jmpq   2020 <_init+0x20>

0000000000002190 <sprintf@plt>:
    2190:	ff 25 32 3f 00 00    	jmpq   *0x3f32(%rip)        # 60c8 <sprintf@GLIBC_2.2.5>
    2196:	68 16 00 00 00       	pushq  $0x16
    219b:	e9 80 fe ff ff       	jmpq   2020 <_init+0x20>

00000000000021a0 <exit@plt>:
    21a0:	ff 25 2a 3f 00 00    	jmpq   *0x3f2a(%rip)        # 60d0 <exit@GLIBC_2.2.5>
    21a6:	68 17 00 00 00       	pushq  $0x17
    21ab:	e9 70 fe ff ff       	jmpq   2020 <_init+0x20>

00000000000021b0 <connect@plt>:
    21b0:	ff 25 22 3f 00 00    	jmpq   *0x3f22(%rip)        # 60d8 <connect@GLIBC_2.2.5>
    21b6:	68 18 00 00 00       	pushq  $0x18
    21bb:	e9 60 fe ff ff       	jmpq   2020 <_init+0x20>

00000000000021c0 <sleep@plt>:
    21c0:	ff 25 1a 3f 00 00    	jmpq   *0x3f1a(%rip)        # 60e0 <sleep@GLIBC_2.2.5>
    21c6:	68 19 00 00 00       	pushq  $0x19
    21cb:	e9 50 fe ff ff       	jmpq   2020 <_init+0x20>

00000000000021d0 <__ctype_b_loc@plt>:
    21d0:	ff 25 12 3f 00 00    	jmpq   *0x3f12(%rip)        # 60e8 <__ctype_b_loc@GLIBC_2.3>
    21d6:	68 1a 00 00 00       	pushq  $0x1a
    21db:	e9 40 fe ff ff       	jmpq   2020 <_init+0x20>

00000000000021e0 <socket@plt>:
    21e0:	ff 25 0a 3f 00 00    	jmpq   *0x3f0a(%rip)        # 60f0 <socket@GLIBC_2.2.5>
    21e6:	68 1b 00 00 00       	pushq  $0x1b
    21eb:	e9 30 fe ff ff       	jmpq   2020 <_init+0x20>

Disassembly of section .text:

00000000000021f0 <_start>:
    21f0:	f3 0f 1e fa          	repz nop %edx
    21f4:	31 ed                	xor    %ebp,%ebp
    21f6:	49 89 d1             	mov    %rdx,%r9
    21f9:	5e                   	pop    %rsi
    21fa:	48 89 e2             	mov    %rsp,%rdx
    21fd:	48 83 e4 f0          	and    $0xfffffffffffffff0,%rsp
    2201:	50                   	push   %rax
    2202:	54                   	push   %rsp
    2203:	4c 8d 05 66 1a 00 00 	lea    0x1a66(%rip),%r8        # 3c70 <__libc_csu_fini>
    220a:	48 8d 0d ef 19 00 00 	lea    0x19ef(%rip),%rcx        # 3c00 <__libc_csu_init>
    2211:	48 8d 3d d1 00 00 00 	lea    0xd1(%rip),%rdi        # 22e9 <main>
    2218:	ff 15 c2 3d 00 00    	callq  *0x3dc2(%rip)        # 5fe0 <__libc_start_main@GLIBC_2.2.5>
    221e:	f4                   	hlt    
    221f:	90                   	nop

0000000000002220 <deregister_tm_clones>:
    2220:	48 8d 3d 99 e5 00 00 	lea    0xe599(%rip),%rdi        # 107c0 <stdout@@GLIBC_2.2.5>
    2227:	48 8d 05 92 e5 00 00 	lea    0xe592(%rip),%rax        # 107c0 <stdout@@GLIBC_2.2.5>
    222e:	48 39 f8             	cmp    %rdi,%rax
    2231:	74 15                	je     2248 <deregister_tm_clones+0x28>
    2233:	48 8b 05 9e 3d 00 00 	mov    0x3d9e(%rip),%rax        # 5fd8 <_ITM_deregisterTMCloneTable>
    223a:	48 85 c0             	test   %rax,%rax
    223d:	74 09                	je     2248 <deregister_tm_clones+0x28>
    223f:	ff e0                	jmpq   *%rax
    2241:	0f 1f 80 00 00 00 00 	nopl   0x0(%rax)
    2248:	c3                   	retq   
    2249:	0f 1f 80 00 00 00 00 	nopl   0x0(%rax)

0000000000002250 <register_tm_clones>:
    2250:	48 8d 3d 69 e5 00 00 	lea    0xe569(%rip),%rdi        # 107c0 <stdout@@GLIBC_2.2.5>
    2257:	48 8d 35 62 e5 00 00 	lea    0xe562(%rip),%rsi        # 107c0 <stdout@@GLIBC_2.2.5>
    225e:	48 29 fe             	sub    %rdi,%rsi
    2261:	48 89 f0             	mov    %rsi,%rax
    2264:	48 c1 ee 3f          	shr    $0x3f,%rsi
    2268:	48 c1 f8 03          	sar    $0x3,%rax
    226c:	48 01 c6             	add    %rax,%rsi
    226f:	48 d1 fe             	sar    %rsi
    2272:	74 14                	je     2288 <register_tm_clones+0x38>
    2274:	48 8b 05 75 3d 00 00 	mov    0x3d75(%rip),%rax        # 5ff0 <_ITM_registerTMCloneTable>
    227b:	48 85 c0             	test   %rax,%rax
    227e:	74 08                	je     2288 <register_tm_clones+0x38>
    2280:	ff e0                	jmpq   *%rax
    2282:	66 0f 1f 44 00 00    	nopw   0x0(%rax,%rax,1)
    2288:	c3                   	retq   
    2289:	0f 1f 80 00 00 00 00 	nopl   0x0(%rax)

0000000000002290 <__do_global_dtors_aux>:
    2290:	f3 0f 1e fa          	repz nop %edx
    2294:	80 3d 4d e5 00 00 00 	cmpb   $0x0,0xe54d(%rip)        # 107e8 <completed.0>
    229b:	75 33                	jne    22d0 <__do_global_dtors_aux+0x40>
    229d:	55                   	push   %rbp
    229e:	48 83 3d 52 3d 00 00 	cmpq   $0x0,0x3d52(%rip)        # 5ff8 <__cxa_finalize@GLIBC_2.2.5>
    22a5:	00 
    22a6:	48 89 e5             	mov    %rsp,%rbp
    22a9:	74 0d                	je     22b8 <__do_global_dtors_aux+0x28>
    22ab:	48 8b 3d 56 3e 00 00 	mov    0x3e56(%rip),%rdi        # 6108 <__dso_handle>
    22b2:	ff 15 40 3d 00 00    	callq  *0x3d40(%rip)        # 5ff8 <__cxa_finalize@GLIBC_2.2.5>
    22b8:	e8 63 ff ff ff       	callq  2220 <deregister_tm_clones>
    22bd:	c6 05 24 e5 00 00 01 	movb   $0x1,0xe524(%rip)        # 107e8 <completed.0>
    22c4:	5d                   	pop    %rbp
    22c5:	c3                   	retq   
    22c6:	66 2e 0f 1f 84 00 00 	nopw   %cs:0x0(%rax,%rax,1)
    22cd:	00 00 00 
    22d0:	c3                   	retq   
    22d1:	66 66 2e 0f 1f 84 00 	data16 nopw %cs:0x0(%rax,%rax,1)
    22d8:	00 00 00 00 
    22dc:	0f 1f 40 00          	nopl   0x0(%rax)

00000000000022e0 <frame_dummy>:
    22e0:	f3 0f 1e fa          	repz nop %edx
    22e4:	e9 67 ff ff ff       	jmpq   2250 <register_tm_clones>

00000000000022e9 <main>:
    22e9:	53                   	push   %rbx
    22ea:	83 ff 01             	cmp    $0x1,%edi
    22ed:	0f 84 f8 00 00 00    	je     23eb <main+0x102>
    22f3:	48 89 f3             	mov    %rsi,%rbx
    22f6:	83 ff 02             	cmp    $0x2,%edi
    22f9:	0f 85 1c 01 00 00    	jne    241b <main+0x132>
    22ff:	48 8b 7e 08          	mov    0x8(%rsi),%rdi
    2303:	48 8d 35 fa 1c 00 00 	lea    0x1cfa(%rip),%rsi        # 4004 <_IO_stdin_used+0x4>
    230a:	e8 61 fe ff ff       	callq  2170 <fopen@plt>
    230f:	48 89 05 da e4 00 00 	mov    %rax,0xe4da(%rip)        # 107f0 <infile>
    2316:	48 85 c0             	test   %rax,%rax
    2319:	0f 84 df 00 00 00    	je     23fe <main+0x115>
    231f:	e8 61 07 00 00       	callq  2a85 <initialize_bomb>
    2324:	48 8d 3d 55 1d 00 00 	lea    0x1d55(%rip),%rdi        # 4080 <_IO_stdin_used+0x80>
    232b:	e8 40 fd ff ff       	callq  2070 <puts@plt>
    2330:	48 8d 3d 89 1d 00 00 	lea    0x1d89(%rip),%rdi        # 40c0 <_IO_stdin_used+0xc0>
    2337:	e8 34 fd ff ff       	callq  2070 <puts@plt>
    233c:	e8 c5 0a 00 00       	callq  2e06 <read_line>
    2341:	48 89 c7             	mov    %rax,%rdi
    2344:	e8 f0 00 00 00       	callq  2439 <phase_1>
    2349:	e8 f2 0b 00 00       	callq  2f40 <phase_defused>
    234e:	48 8d 3d 9b 1d 00 00 	lea    0x1d9b(%rip),%rdi        # 40f0 <_IO_stdin_used+0xf0>
    2355:	e8 16 fd ff ff       	callq  2070 <puts@plt>
    235a:	e8 a7 0a 00 00       	callq  2e06 <read_line>
    235f:	48 89 c7             	mov    %rax,%rdi
    2362:	e8 f2 00 00 00       	callq  2459 <phase_2>
    2367:	e8 d4 0b 00 00       	callq  2f40 <phase_defused>
    236c:	48 8d 3d ca 1c 00 00 	lea    0x1cca(%rip),%rdi        # 403d <_IO_stdin_used+0x3d>
    2373:	e8 f8 fc ff ff       	callq  2070 <puts@plt>
    2378:	e8 89 0a 00 00       	callq  2e06 <read_line>
    237d:	48 89 c7             	mov    %rax,%rdi
    2380:	e8 43 01 00 00       	callq  24c8 <phase_3>
    2385:	e8 b6 0b 00 00       	callq  2f40 <phase_defused>
    238a:	48 8d 3d bd 1c 00 00 	lea    0x1cbd(%rip),%rdi        # 404e <_IO_stdin_used+0x4e>
    2391:	e8 da fc ff ff       	callq  2070 <puts@plt>
    2396:	e8 6b 0a 00 00       	callq  2e06 <read_line>
    239b:	48 89 c7             	mov    %rax,%rdi
    239e:	e8 e0 02 00 00       	callq  2683 <phase_4>
    23a3:	e8 98 0b 00 00       	callq  2f40 <phase_defused>
    23a8:	48 8d 3d 71 1d 00 00 	lea    0x1d71(%rip),%rdi        # 4120 <_IO_stdin_used+0x120>
    23af:	e8 bc fc ff ff       	callq  2070 <puts@plt>
    23b4:	e8 4d 0a 00 00       	callq  2e06 <read_line>
    23b9:	48 89 c7             	mov    %rax,%rdi
    23bc:	e8 33 03 00 00       	callq  26f4 <phase_5>
    23c1:	e8 7a 0b 00 00       	callq  2f40 <phase_defused>
    23c6:	48 8d 3d 90 1c 00 00 	lea    0x1c90(%rip),%rdi        # 405d <_IO_stdin_used+0x5d>
    23cd:	e8 9e fc ff ff       	callq  2070 <puts@plt>
    23d2:	e8 2f 0a 00 00       	callq  2e06 <read_line>
    23d7:	48 89 c7             	mov    %rax,%rdi
    23da:	e8 a2 03 00 00       	callq  2781 <phase_6>
    23df:	e8 5c 0b 00 00       	callq  2f40 <phase_defused>
    23e4:	b8 00 00 00 00       	mov    $0x0,%eax
    23e9:	5b                   	pop    %rbx
    23ea:	c3                   	retq   
    23eb:	48 8b 05 de e3 00 00 	mov    0xe3de(%rip),%rax        # 107d0 <stdin@@GLIBC_2.2.5>
    23f2:	48 89 05 f7 e3 00 00 	mov    %rax,0xe3f7(%rip)        # 107f0 <infile>
    23f9:	e9 21 ff ff ff       	jmpq   231f <main+0x36>
    23fe:	48 8b 53 08          	mov    0x8(%rbx),%rdx
    2402:	48 8b 33             	mov    (%rbx),%rsi
    2405:	48 8d 3d fa 1b 00 00 	lea    0x1bfa(%rip),%rdi        # 4006 <_IO_stdin_used+0x6>
    240c:	e8 9f fc ff ff       	callq  20b0 <printf@plt>
    2411:	bf 08 00 00 00       	mov    $0x8,%edi
    2416:	e8 85 fd ff ff       	callq  21a0 <exit@plt>
    241b:	48 8b 36             	mov    (%rsi),%rsi
    241e:	48 8d 3d fe 1b 00 00 	lea    0x1bfe(%rip),%rdi        # 4023 <_IO_stdin_used+0x23>
    2425:	b8 00 00 00 00       	mov    $0x0,%eax
    242a:	e8 81 fc ff ff       	callq  20b0 <printf@plt>
    242f:	bf 08 00 00 00       	mov    $0x8,%edi
    2434:	e8 67 fd ff ff       	callq  21a0 <exit@plt>

0000000000002439 <phase_1>:
    2439:	48 83 ec 08          	sub    $0x8,%rsp
    243d:	48 8d 35 04 1d 00 00 	lea    0x1d04(%rip),%rsi        # 4148 <_IO_stdin_used+0x148>
    2444:	e8 e0 05 00 00       	callq  2a29 <strings_not_equal>
    2449:	85 c0                	test   %eax,%eax
    244b:	75 05                	jne    2452 <phase_1+0x19>
    244d:	48 83 c4 08          	add    $0x8,%rsp
    2451:	c3                   	retq   
    2452:	e8 ae 08 00 00       	callq  2d05 <explode_bomb>
    2457:	eb f4                	jmp    244d <phase_1+0x14>

0000000000002459 <phase_2>:
    2459:	55                   	push   %rbp
    245a:	53                   	push   %rbx
    245b:	48 83 ec 28          	sub    $0x28,%rsp
    245f:	64 48 8b 04 25 28 00 	mov    %fs:0x28,%rax
    2466:	00 00 
    2468:	48 89 44 24 18       	mov    %rax,0x18(%rsp)
    246d:	31 c0                	xor    %eax,%eax
    246f:	48 89 e6             	mov    %rsp,%rsi
    2472:	e8 4e 09 00 00       	callq  2dc5 <read_six_numbers>
    2477:	83 3c 24 09          	cmpl   $0x9,(%rsp)
    247b:	75 0a                	jne    2487 <phase_2+0x2e>
    247d:	48 89 e3             	mov    %rsp,%rbx
    2480:	48 8d 6c 24 14       	lea    0x14(%rsp),%rbp
    2485:	eb 10                	jmp    2497 <phase_2+0x3e>
    2487:	e8 79 08 00 00       	callq  2d05 <explode_bomb>
    248c:	eb ef                	jmp    247d <phase_2+0x24>
    248e:	48 83 c3 04          	add    $0x4,%rbx
    2492:	48 39 eb             	cmp    %rbp,%rbx
    2495:	74 15                	je     24ac <phase_2+0x53>
    2497:	8b 05 87 3c 00 00    	mov    0x3c87(%rip),%eax        # 6124 <mul.2>
    249d:	0f af 03             	imul   (%rbx),%eax
    24a0:	39 43 04             	cmp    %eax,0x4(%rbx)
    24a3:	74 e9                	je     248e <phase_2+0x35>
    24a5:	e8 5b 08 00 00       	callq  2d05 <explode_bomb>
    24aa:	eb e2                	jmp    248e <phase_2+0x35>
    24ac:	48 8b 44 24 18       	mov    0x18(%rsp),%rax
    24b1:	64 48 2b 04 25 28 00 	sub    %fs:0x28,%rax
    24b8:	00 00 
    24ba:	75 07                	jne    24c3 <phase_2+0x6a>
    24bc:	48 83 c4 28          	add    $0x28,%rsp
    24c0:	5b                   	pop    %rbx
    24c1:	5d                   	pop    %rbp
    24c2:	c3                   	retq   
    24c3:	e8 d8 fb ff ff       	callq  20a0 <__stack_chk_fail@plt>

00000000000024c8 <phase_3>:
    24c8:	48 83 ec 28          	sub    $0x28,%rsp
    24cc:	64 48 8b 04 25 28 00 	mov    %fs:0x28,%rax
    24d3:	00 00 
    24d5:	48 89 44 24 18       	mov    %rax,0x18(%rsp)
    24da:	31 c0                	xor    %eax,%eax
    24dc:	48 8d 4c 24 0f       	lea    0xf(%rsp),%rcx
    24e1:	48 8d 54 24 10       	lea    0x10(%rsp),%rdx
    24e6:	4c 8d 44 24 14       	lea    0x14(%rsp),%r8
    24eb:	48 8d 35 c4 1c 00 00 	lea    0x1cc4(%rip),%rsi        # 41b6 <_IO_stdin_used+0x1b6>
    24f2:	e8 59 fc ff ff       	callq  2150 <__isoc99_sscanf@plt>
    24f7:	83 f8 02             	cmp    $0x2,%eax
    24fa:	7e 29                	jle    2525 <phase_3+0x5d>
    24fc:	8b 05 1e 3c 00 00    	mov    0x3c1e(%rip),%eax        # 6120 <mask.1>
    2502:	30 44 24 0f          	xor    %al,0xf(%rsp)
    2506:	83 7c 24 10 07       	cmpl   $0x7,0x10(%rsp)
    250b:	0f 87 05 01 00 00    	ja     2616 <phase_3+0x14e>
    2511:	8b 44 24 10          	mov    0x10(%rsp),%eax
    2515:	48 8d 15 b4 1c 00 00 	lea    0x1cb4(%rip),%rdx        # 41d0 <_IO_stdin_used+0x1d0>
    251c:	48 63 04 82          	movslq (%rdx,%rax,4),%rax
    2520:	48 01 d0             	add    %rdx,%rax
    2523:	ff e0                	jmpq   *%rax
    2525:	e8 db 07 00 00       	callq  2d05 <explode_bomb>
    252a:	eb d0                	jmp    24fc <phase_3+0x34>
    252c:	b8 61 00 00 00       	mov    $0x61,%eax
    2531:	81 7c 24 14 7b 03 00 	cmpl   $0x37b,0x14(%rsp)
    2538:	00 
    2539:	0f 84 e1 00 00 00    	je     2620 <phase_3+0x158>
    253f:	e8 c1 07 00 00       	callq  2d05 <explode_bomb>
    2544:	b8 61 00 00 00       	mov    $0x61,%eax
    2549:	e9 d2 00 00 00       	jmpq   2620 <phase_3+0x158>
    254e:	b8 66 00 00 00       	mov    $0x66,%eax
    2553:	81 7c 24 14 de 03 00 	cmpl   $0x3de,0x14(%rsp)
    255a:	00 
    255b:	0f 84 bf 00 00 00    	je     2620 <phase_3+0x158>
    2561:	e8 9f 07 00 00       	callq  2d05 <explode_bomb>
    2566:	b8 66 00 00 00       	mov    $0x66,%eax
    256b:	e9 b0 00 00 00       	jmpq   2620 <phase_3+0x158>
    2570:	b8 76 00 00 00       	mov    $0x76,%eax
    2575:	81 7c 24 14 4e 01 00 	cmpl   $0x14e,0x14(%rsp)
    257c:	00 
    257d:	0f 84 9d 00 00 00    	je     2620 <phase_3+0x158>
    2583:	e8 7d 07 00 00       	callq  2d05 <explode_bomb>
    2588:	b8 76 00 00 00       	mov    $0x76,%eax
    258d:	e9 8e 00 00 00       	jmpq   2620 <phase_3+0x158>
    2592:	b8 7a 00 00 00       	mov    $0x7a,%eax
    2597:	81 7c 24 14 b7 02 00 	cmpl   $0x2b7,0x14(%rsp)
    259e:	00 
    259f:	74 7f                	je     2620 <phase_3+0x158>
    25a1:	e8 5f 07 00 00       	callq  2d05 <explode_bomb>
    25a6:	b8 7a 00 00 00       	mov    $0x7a,%eax
    25ab:	eb 73                	jmp    2620 <phase_3+0x158>
    25ad:	b8 68 00 00 00       	mov    $0x68,%eax
    25b2:	83 7c 24 14 4a       	cmpl   $0x4a,0x14(%rsp)
    25b7:	74 67                	je     2620 <phase_3+0x158>
    25b9:	e8 47 07 00 00       	callq  2d05 <explode_bomb>
    25be:	b8 68 00 00 00       	mov    $0x68,%eax
    25c3:	eb 5b                	jmp    2620 <phase_3+0x158>
    25c5:	b8 6a 00 00 00       	mov    $0x6a,%eax
    25ca:	81 7c 24 14 c9 02 00 	cmpl   $0x2c9,0x14(%rsp)
    25d1:	00 
    25d2:	74 4c                	je     2620 <phase_3+0x158>
    25d4:	e8 2c 07 00 00       	callq  2d05 <explode_bomb>
    25d9:	b8 6a 00 00 00       	mov    $0x6a,%eax
    25de:	eb 40                	jmp    2620 <phase_3+0x158>
    25e0:	b8 6d 00 00 00       	mov    $0x6d,%eax
    25e5:	81 7c 24 14 af 01 00 	cmpl   $0x1af,0x14(%rsp)
    25ec:	00 
    25ed:	74 31                	je     2620 <phase_3+0x158>
    25ef:	e8 11 07 00 00       	callq  2d05 <explode_bomb>
    25f4:	b8 6d 00 00 00       	mov    $0x6d,%eax
    25f9:	eb 25                	jmp    2620 <phase_3+0x158>
    25fb:	b8 73 00 00 00       	mov    $0x73,%eax
    2600:	81 7c 24 14 f3 02 00 	cmpl   $0x2f3,0x14(%rsp)
    2607:	00 
    2608:	74 16                	je     2620 <phase_3+0x158>
    260a:	e8 f6 06 00 00       	callq  2d05 <explode_bomb>
    260f:	b8 73 00 00 00       	mov    $0x73,%eax
    2614:	eb 0a                	jmp    2620 <phase_3+0x158>
    2616:	e8 ea 06 00 00       	callq  2d05 <explode_bomb>
    261b:	b8 6b 00 00 00       	mov    $0x6b,%eax
    2620:	38 44 24 0f          	cmp    %al,0xf(%rsp)
    2624:	75 15                	jne    263b <phase_3+0x173>
    2626:	48 8b 44 24 18       	mov    0x18(%rsp),%rax
    262b:	64 48 2b 04 25 28 00 	sub    %fs:0x28,%rax
    2632:	00 00 
    2634:	75 0c                	jne    2642 <phase_3+0x17a>
    2636:	48 83 c4 28          	add    $0x28,%rsp
    263a:	c3                   	retq   
    263b:	e8 c5 06 00 00       	callq  2d05 <explode_bomb>
    2640:	eb e4                	jmp    2626 <phase_3+0x15e>
    2642:	e8 59 fa ff ff       	callq  20a0 <__stack_chk_fail@plt>

0000000000002647 <func4>:
    2647:	b8 00 00 00 00       	mov    $0x0,%eax
    264c:	85 ff                	test   %edi,%edi
    264e:	7e 32                	jle    2682 <func4+0x3b>
    2650:	41 54                	push   %r12
    2652:	55                   	push   %rbp
    2653:	53                   	push   %rbx
    2654:	89 fb                	mov    %edi,%ebx
    2656:	89 f5                	mov    %esi,%ebp
    2658:	89 f0                	mov    %esi,%eax
    265a:	83 ff 01             	cmp    $0x1,%edi
    265d:	74 1e                	je     267d <func4+0x36>
    265f:	44 8d 66 01          	lea    0x1(%rsi),%r12d
    2663:	8d 7f ff             	lea    -0x1(%rdi),%edi
    2666:	44 89 e6             	mov    %r12d,%esi
    2669:	e8 d9 ff ff ff       	callq  2647 <func4>
    266e:	01 c5                	add    %eax,%ebp
    2670:	8d 7b fe             	lea    -0x2(%rbx),%edi
    2673:	44 89 e6             	mov    %r12d,%esi
    2676:	e8 cc ff ff ff       	callq  2647 <func4>
    267b:	01 e8                	add    %ebp,%eax
    267d:	5b                   	pop    %rbx
    267e:	5d                   	pop    %rbp
    267f:	41 5c                	pop    %r12
    2681:	c3                   	retq   
    2682:	c3                   	retq   

0000000000002683 <phase_4>:
    2683:	48 83 ec 18          	sub    $0x18,%rsp
    2687:	64 48 8b 04 25 28 00 	mov    %fs:0x28,%rax
    268e:	00 00 
    2690:	48 89 44 24 08       	mov    %rax,0x8(%rsp)
    2695:	31 c0                	xor    %eax,%eax
    2697:	48 89 e1             	mov    %rsp,%rcx
    269a:	48 8d 54 24 04       	lea    0x4(%rsp),%rdx
    269f:	48 8d 35 3b 1f 00 00 	lea    0x1f3b(%rip),%rsi        # 45e1 <array.0+0x3f1>
    26a6:	e8 a5 fa ff ff       	callq  2150 <__isoc99_sscanf@plt>
    26ab:	83 f8 02             	cmp    $0x2,%eax
    26ae:	75 0b                	jne    26bb <phase_4+0x38>
    26b0:	8b 04 24             	mov    (%rsp),%eax
    26b3:	83 e8 02             	sub    $0x2,%eax
    26b6:	83 f8 02             	cmp    $0x2,%eax
    26b9:	76 05                	jbe    26c0 <phase_4+0x3d>
    26bb:	e8 45 06 00 00       	callq  2d05 <explode_bomb>
    26c0:	8b 34 24             	mov    (%rsp),%esi
    26c3:	bf 07 00 00 00       	mov    $0x7,%edi
    26c8:	e8 7a ff ff ff       	callq  2647 <func4>
    26cd:	39 44 24 04          	cmp    %eax,0x4(%rsp)
    26d1:	75 15                	jne    26e8 <phase_4+0x65>
    26d3:	48 8b 44 24 08       	mov    0x8(%rsp),%rax
    26d8:	64 48 2b 04 25 28 00 	sub    %fs:0x28,%rax
    26df:	00 00 
    26e1:	75 0c                	jne    26ef <phase_4+0x6c>
    26e3:	48 83 c4 18          	add    $0x18,%rsp
    26e7:	c3                   	retq   
    26e8:	e8 18 06 00 00       	callq  2d05 <explode_bomb>
    26ed:	eb e4                	jmp    26d3 <phase_4+0x50>
    26ef:	e8 ac f9 ff ff       	callq  20a0 <__stack_chk_fail@plt>

00000000000026f4 <phase_5>:
    26f4:	53                   	push   %rbx
    26f5:	48 83 ec 10          	sub    $0x10,%rsp
    26f9:	48 89 fb             	mov    %rdi,%rbx
    26fc:	64 48 8b 04 25 28 00 	mov    %fs:0x28,%rax
    2703:	00 00 
    2705:	48 89 44 24 08       	mov    %rax,0x8(%rsp)
    270a:	31 c0                	xor    %eax,%eax
    270c:	e8 fb 02 00 00       	callq  2a0c <string_length>
    2711:	83 f8 06             	cmp    $0x6,%eax
    2714:	75 58                	jne    276e <phase_5+0x7a>
    2716:	ba 00 00 00 00       	mov    $0x0,%edx
    271b:	48 8d 0d ce 1a 00 00 	lea    0x1ace(%rip),%rcx        # 41f0 <array.0>
    2722:	0f be 04 13          	movsbl (%rbx,%rdx,1),%eax
    2726:	83 c0 0f             	add    $0xf,%eax
    2729:	83 e0 0f             	and    $0xf,%eax
    272c:	0f b6 04 01          	movzbl (%rcx,%rax,1),%eax
    2730:	88 44 14 01          	mov    %al,0x1(%rsp,%rdx,1)
    2734:	48 83 c2 01          	add    $0x1,%rdx
    2738:	48 83 fa 06          	cmp    $0x6,%rdx
    273c:	75 e4                	jne    2722 <phase_5+0x2e>
    273e:	c6 44 24 07 00       	movb   $0x0,0x7(%rsp)
    2743:	48 8d 7c 24 01       	lea    0x1(%rsp),%rdi
    2748:	48 8d 35 70 1a 00 00 	lea    0x1a70(%rip),%rsi        # 41bf <_IO_stdin_used+0x1bf>
    274f:	e8 d5 02 00 00       	callq  2a29 <strings_not_equal>
    2754:	85 c0                	test   %eax,%eax
    2756:	75 1d                	jne    2775 <phase_5+0x81>
    2758:	48 8b 44 24 08       	mov    0x8(%rsp),%rax
    275d:	64 48 2b 04 25 28 00 	sub    %fs:0x28,%rax
    2764:	00 00 
    2766:	75 14                	jne    277c <phase_5+0x88>
    2768:	48 83 c4 10          	add    $0x10,%rsp
    276c:	5b                   	pop    %rbx
    276d:	c3                   	retq   
    276e:	e8 92 05 00 00       	callq  2d05 <explode_bomb>
    2773:	eb a1                	jmp    2716 <phase_5+0x22>
    2775:	e8 8b 05 00 00       	callq  2d05 <explode_bomb>
    277a:	eb dc                	jmp    2758 <phase_5+0x64>
    277c:	e8 1f f9 ff ff       	callq  20a0 <__stack_chk_fail@plt>

0000000000002781 <phase_6>:
    2781:	41 57                	push   %r15
    2783:	41 56                	push   %r14
    2785:	41 55                	push   %r13
    2787:	41 54                	push   %r12
    2789:	55                   	push   %rbp
    278a:	53                   	push   %rbx
    278b:	48 83 ec 78          	sub    $0x78,%rsp
    278f:	64 48 8b 04 25 28 00 	mov    %fs:0x28,%rax
    2796:	00 00 
    2798:	48 89 44 24 68       	mov    %rax,0x68(%rsp)
    279d:	31 c0                	xor    %eax,%eax
    279f:	4c 8d 74 24 10       	lea    0x10(%rsp),%r14
    27a4:	4c 89 74 24 08       	mov    %r14,0x8(%rsp)
    27a9:	4c 89 f6             	mov    %r14,%rsi
    27ac:	e8 14 06 00 00       	callq  2dc5 <read_six_numbers>
    27b1:	4d 89 f4             	mov    %r14,%r12
    27b4:	41 bf 01 00 00 00    	mov    $0x1,%r15d
    27ba:	4d 89 f5             	mov    %r14,%r13
    27bd:	e9 c6 00 00 00       	jmpq   2888 <phase_6+0x107>
    27c2:	e8 3e 05 00 00       	callq  2d05 <explode_bomb>
    27c7:	e9 ce 00 00 00       	jmpq   289a <phase_6+0x119>
    27cc:	48 83 c3 01          	add    $0x1,%rbx
    27d0:	83 fb 05             	cmp    $0x5,%ebx
    27d3:	0f 8f a7 00 00 00    	jg     2880 <phase_6+0xff>
    27d9:	41 8b 44 9d 00       	mov    0x0(%r13,%rbx,4),%eax
    27de:	39 45 00             	cmp    %eax,0x0(%rbp)
    27e1:	75 e9                	jne    27cc <phase_6+0x4b>
    27e3:	e8 1d 05 00 00       	callq  2d05 <explode_bomb>
    27e8:	eb e2                	jmp    27cc <phase_6+0x4b>
    27ea:	48 8b 54 24 08       	mov    0x8(%rsp),%rdx
    27ef:	48 83 c2 18          	add    $0x18,%rdx
    27f3:	b9 07 00 00 00       	mov    $0x7,%ecx
    27f8:	89 c8                	mov    %ecx,%eax
    27fa:	41 2b 04 24          	sub    (%r12),%eax
    27fe:	41 89 04 24          	mov    %eax,(%r12)
    2802:	49 83 c4 04          	add    $0x4,%r12
    2806:	4c 39 e2             	cmp    %r12,%rdx
    2809:	75 ed                	jne    27f8 <phase_6+0x77>
    280b:	be 00 00 00 00       	mov    $0x0,%esi
    2810:	8b 4c b4 10          	mov    0x10(%rsp,%rsi,4),%ecx
    2814:	b8 01 00 00 00       	mov    $0x1,%eax
    2819:	48 8d 15 40 db 00 00 	lea    0xdb40(%rip),%rdx        # 10360 <node1>
    2820:	83 f9 01             	cmp    $0x1,%ecx
    2823:	7e 0b                	jle    2830 <phase_6+0xaf>
    2825:	48 8b 52 08          	mov    0x8(%rdx),%rdx
    2829:	83 c0 01             	add    $0x1,%eax
    282c:	39 c8                	cmp    %ecx,%eax
    282e:	75 f5                	jne    2825 <phase_6+0xa4>
    2830:	48 89 54 f4 30       	mov    %rdx,0x30(%rsp,%rsi,8)
    2835:	48 83 c6 01          	add    $0x1,%rsi
    2839:	48 83 fe 06          	cmp    $0x6,%rsi
    283d:	75 d1                	jne    2810 <phase_6+0x8f>
    283f:	48 8b 5c 24 30       	mov    0x30(%rsp),%rbx
    2844:	48 8b 44 24 38       	mov    0x38(%rsp),%rax
    2849:	48 89 43 08          	mov    %rax,0x8(%rbx)
    284d:	48 8b 54 24 40       	mov    0x40(%rsp),%rdx
    2852:	48 89 50 08          	mov    %rdx,0x8(%rax)
    2856:	48 8b 44 24 48       	mov    0x48(%rsp),%rax
    285b:	48 89 42 08          	mov    %rax,0x8(%rdx)
    285f:	48 8b 54 24 50       	mov    0x50(%rsp),%rdx
    2864:	48 89 50 08          	mov    %rdx,0x8(%rax)
    2868:	48 8b 44 24 58       	mov    0x58(%rsp),%rax
    286d:	48 89 42 08          	mov    %rax,0x8(%rdx)
    2871:	48 c7 40 08 00 00 00 	movq   $0x0,0x8(%rax)
    2878:	00 
    2879:	bd 05 00 00 00       	mov    $0x5,%ebp
    287e:	eb 35                	jmp    28b5 <phase_6+0x134>
    2880:	49 83 c7 01          	add    $0x1,%r15
    2884:	49 83 c6 04          	add    $0x4,%r14
    2888:	4c 89 f5             	mov    %r14,%rbp
    288b:	41 8b 06             	mov    (%r14),%eax
    288e:	83 e8 01             	sub    $0x1,%eax
    2891:	83 f8 05             	cmp    $0x5,%eax
    2894:	0f 87 28 ff ff ff    	ja     27c2 <phase_6+0x41>
    289a:	41 83 ff 05          	cmp    $0x5,%r15d
    289e:	0f 8f 46 ff ff ff    	jg     27ea <phase_6+0x69>
    28a4:	4c 89 fb             	mov    %r15,%rbx
    28a7:	e9 2d ff ff ff       	jmpq   27d9 <phase_6+0x58>
    28ac:	48 8b 5b 08          	mov    0x8(%rbx),%rbx
    28b0:	83 ed 01             	sub    $0x1,%ebp
    28b3:	74 11                	je     28c6 <phase_6+0x145>
    28b5:	48 8b 43 08          	mov    0x8(%rbx),%rax
    28b9:	8b 00                	mov    (%rax),%eax
    28bb:	39 03                	cmp    %eax,(%rbx)
    28bd:	7d ed                	jge    28ac <phase_6+0x12b>
    28bf:	e8 41 04 00 00       	callq  2d05 <explode_bomb>
    28c4:	eb e6                	jmp    28ac <phase_6+0x12b>
    28c6:	48 8b 44 24 68       	mov    0x68(%rsp),%rax
    28cb:	64 48 2b 04 25 28 00 	sub    %fs:0x28,%rax
    28d2:	00 00 
    28d4:	75 0f                	jne    28e5 <phase_6+0x164>
    28d6:	48 83 c4 78          	add    $0x78,%rsp
    28da:	5b                   	pop    %rbx
    28db:	5d                   	pop    %rbp
    28dc:	41 5c                	pop    %r12
    28de:	41 5d                	pop    %r13
    28e0:	41 5e                	pop    %r14
    28e2:	41 5f                	pop    %r15
    28e4:	c3                   	retq   
    28e5:	e8 b6 f7 ff ff       	callq  20a0 <__stack_chk_fail@plt>

00000000000028ea <fun7>:
    28ea:	55                   	push   %rbp
    28eb:	53                   	push   %rbx
    28ec:	48 83 ec 08          	sub    $0x8,%rsp
    28f0:	48 89 fb             	mov    %rdi,%rbx
    28f3:	48 89 f5             	mov    %rsi,%rbp
    28f6:	48 85 ff             	test   %rdi,%rdi
    28f9:	74 2b                	je     2926 <fun7+0x3c>
    28fb:	0f b6 55 00          	movzbl 0x0(%rbp),%edx
    28ff:	84 d2                	test   %dl,%dl
    2901:	74 2a                	je     292d <fun7+0x43>
    2903:	80 fa 61             	cmp    $0x61,%dl
    2906:	74 29                	je     2931 <fun7+0x47>
    2908:	0f be d2             	movsbl %dl,%edx
    290b:	83 ea 61             	sub    $0x61,%edx
    290e:	b8 01 00 00 00       	mov    $0x1,%eax
    2913:	39 d0                	cmp    %edx,%eax
    2915:	74 1f                	je     2936 <fun7+0x4c>
    2917:	83 c0 01             	add    $0x1,%eax
    291a:	83 f8 1a             	cmp    $0x1a,%eax
    291d:	75 f4                	jne    2913 <fun7+0x29>
    291f:	e8 e1 03 00 00       	callq  2d05 <explode_bomb>
    2924:	eb 21                	jmp    2947 <fun7+0x5d>
    2926:	e8 da 03 00 00       	callq  2d05 <explode_bomb>
    292b:	eb ce                	jmp    28fb <fun7+0x11>
    292d:	8b 03                	mov    (%rbx),%eax
    292f:	eb 16                	jmp    2947 <fun7+0x5d>
    2931:	ba 00 00 00 00       	mov    $0x0,%edx
    2936:	48 8d 75 01          	lea    0x1(%rbp),%rsi
    293a:	48 63 d2             	movslq %edx,%rdx
    293d:	48 8b 7c d3 08       	mov    0x8(%rbx,%rdx,8),%rdi
    2942:	e8 a3 ff ff ff       	callq  28ea <fun7>
    2947:	48 83 c4 08          	add    $0x8,%rsp
    294b:	5b                   	pop    %rbx
    294c:	5d                   	pop    %rbp
    294d:	c3                   	retq   

000000000000294e <secret_phase>:
    294e:	48 83 ec 18          	sub    $0x18,%rsp
    2952:	c7 44 24 0c 1b 00 00 	movl   $0x1b,0xc(%rsp)
    2959:	00 
    295a:	e8 a7 04 00 00       	callq  2e06 <read_line>
    295f:	48 89 c6             	mov    %rax,%rsi
    2962:	48 8d 3d 77 51 00 00 	lea    0x5177(%rip),%rdi        # 7ae0 <t0>
    2969:	e8 7c ff ff ff       	callq  28ea <fun7>
    296e:	8b 54 24 0c          	mov    0xc(%rsp),%edx
    2972:	39 c2                	cmp    %eax,%edx
    2974:	75 16                	jne    298c <secret_phase+0x3e>
    2976:	48 8d 3d 13 18 00 00 	lea    0x1813(%rip),%rdi        # 4190 <_IO_stdin_used+0x190>
    297d:	e8 ee f6 ff ff       	callq  2070 <puts@plt>
    2982:	e8 b9 05 00 00       	callq  2f40 <phase_defused>
    2987:	48 83 c4 18          	add    $0x18,%rsp
    298b:	c3                   	retq   
    298c:	e8 74 03 00 00       	callq  2d05 <explode_bomb>
    2991:	eb e3                	jmp    2976 <secret_phase+0x28>

0000000000002993 <sig_handler>:
    2993:	48 83 ec 08          	sub    $0x8,%rsp
    2997:	48 8d 3d 62 18 00 00 	lea    0x1862(%rip),%rdi        # 4200 <array.0+0x10>
    299e:	e8 cd f6 ff ff       	callq  2070 <puts@plt>
    29a3:	bf 03 00 00 00       	mov    $0x3,%edi
    29a8:	e8 13 f8 ff ff       	callq  21c0 <sleep@plt>
    29ad:	48 8d 3d 35 1a 00 00 	lea    0x1a35(%rip),%rdi        # 43e9 <array.0+0x1f9>
    29b4:	b8 00 00 00 00       	mov    $0x0,%eax
    29b9:	e8 f2 f6 ff ff       	callq  20b0 <printf@plt>
    29be:	48 8b 3d fb dd 00 00 	mov    0xddfb(%rip),%rdi        # 107c0 <stdout@@GLIBC_2.2.5>
    29c5:	e8 76 f7 ff ff       	callq  2140 <fflush@plt>
    29ca:	bf 01 00 00 00       	mov    $0x1,%edi
    29cf:	e8 ec f7 ff ff       	callq  21c0 <sleep@plt>
    29d4:	48 8d 3d 16 1a 00 00 	lea    0x1a16(%rip),%rdi        # 43f1 <array.0+0x201>
    29db:	e8 90 f6 ff ff       	callq  2070 <puts@plt>
    29e0:	bf 10 00 00 00       	mov    $0x10,%edi
    29e5:	e8 b6 f7 ff ff       	callq  21a0 <exit@plt>

00000000000029ea <invalid_phase>:
    29ea:	48 83 ec 08          	sub    $0x8,%rsp
    29ee:	48 89 fe             	mov    %rdi,%rsi
    29f1:	48 8d 3d 03 1a 00 00 	lea    0x1a03(%rip),%rdi        # 43fb <array.0+0x20b>
    29f8:	b8 00 00 00 00       	mov    $0x0,%eax
    29fd:	e8 ae f6 ff ff       	callq  20b0 <printf@plt>
    2a02:	bf 08 00 00 00       	mov    $0x8,%edi
    2a07:	e8 94 f7 ff ff       	callq  21a0 <exit@plt>

0000000000002a0c <string_length>:
    2a0c:	80 3f 00             	cmpb   $0x0,(%rdi)
    2a0f:	74 12                	je     2a23 <string_length+0x17>
    2a11:	b8 00 00 00 00       	mov    $0x0,%eax
    2a16:	48 83 c7 01          	add    $0x1,%rdi
    2a1a:	83 c0 01             	add    $0x1,%eax
    2a1d:	80 3f 00             	cmpb   $0x0,(%rdi)
    2a20:	75 f4                	jne    2a16 <string_length+0xa>
    2a22:	c3                   	retq   
    2a23:	b8 00 00 00 00       	mov    $0x0,%eax
    2a28:	c3                   	retq   

0000000000002a29 <strings_not_equal>:
    2a29:	41 54                	push   %r12
    2a2b:	55                   	push   %rbp
    2a2c:	53                   	push   %rbx
    2a2d:	48 89 fb             	mov    %rdi,%rbx
    2a30:	48 89 f5             	mov    %rsi,%rbp
    2a33:	e8 d4 ff ff ff       	callq  2a0c <string_length>
    2a38:	41 89 c4             	mov    %eax,%r12d
    2a3b:	48 89 ef             	mov    %rbp,%rdi
    2a3e:	e8 c9 ff ff ff       	callq  2a0c <string_length>
    2a43:	89 c2                	mov    %eax,%edx
    2a45:	b8 01 00 00 00       	mov    $0x1,%eax
    2a4a:	41 39 d4             	cmp    %edx,%r12d
    2a4d:	75 31                	jne    2a80 <strings_not_equal+0x57>
    2a4f:	0f b6 13             	movzbl (%rbx),%edx
    2a52:	84 d2                	test   %dl,%dl
    2a54:	74 1e                	je     2a74 <strings_not_equal+0x4b>
    2a56:	b8 00 00 00 00       	mov    $0x0,%eax
    2a5b:	38 54 05 00          	cmp    %dl,0x0(%rbp,%rax,1)
    2a5f:	75 1a                	jne    2a7b <strings_not_equal+0x52>
    2a61:	48 83 c0 01          	add    $0x1,%rax
    2a65:	0f b6 14 03          	movzbl (%rbx,%rax,1),%edx
    2a69:	84 d2                	test   %dl,%dl
    2a6b:	75 ee                	jne    2a5b <strings_not_equal+0x32>
    2a6d:	b8 00 00 00 00       	mov    $0x0,%eax
    2a72:	eb 0c                	jmp    2a80 <strings_not_equal+0x57>
    2a74:	b8 00 00 00 00       	mov    $0x0,%eax
    2a79:	eb 05                	jmp    2a80 <strings_not_equal+0x57>
    2a7b:	b8 01 00 00 00       	mov    $0x1,%eax
    2a80:	5b                   	pop    %rbx
    2a81:	5d                   	pop    %rbp
    2a82:	41 5c                	pop    %r12
    2a84:	c3                   	retq   

0000000000002a85 <initialize_bomb>:
    2a85:	55                   	push   %rbp
    2a86:	53                   	push   %rbx
    2a87:	48 81 ec 58 20 00 00 	sub    $0x2058,%rsp
    2a8e:	64 48 8b 04 25 28 00 	mov    %fs:0x28,%rax
    2a95:	00 00 
    2a97:	48 89 84 24 48 20 00 	mov    %rax,0x2048(%rsp)
    2a9e:	00 
    2a9f:	31 c0                	xor    %eax,%eax
    2aa1:	48 8d 35 eb fe ff ff 	lea    -0x115(%rip),%rsi        # 2993 <sig_handler>
    2aa8:	bf 02 00 00 00       	mov    $0x2,%edi
    2aad:	e8 5e f6 ff ff       	callq  2110 <signal@plt>
    2ab2:	48 89 e7             	mov    %rsp,%rdi
    2ab5:	be 40 00 00 00       	mov    $0x40,%esi
    2aba:	e8 c1 f6 ff ff       	callq  2180 <gethostname@plt>
    2abf:	85 c0                	test   %eax,%eax
    2ac1:	75 45                	jne    2b08 <initialize_bomb+0x83>
    2ac3:	48 8b 3d f6 d8 00 00 	mov    0xd8f6(%rip),%rdi        # 103c0 <host_table>
    2aca:	48 8d 1d f7 d8 00 00 	lea    0xd8f7(%rip),%rbx        # 103c8 <host_table+0x8>
    2ad1:	48 89 e5             	mov    %rsp,%rbp
    2ad4:	48 85 ff             	test   %rdi,%rdi
    2ad7:	74 19                	je     2af2 <initialize_bomb+0x6d>
    2ad9:	48 89 ee             	mov    %rbp,%rsi
    2adc:	e8 5f f5 ff ff       	callq  2040 <strcasecmp@plt>
    2ae1:	85 c0                	test   %eax,%eax
    2ae3:	74 59                	je     2b3e <initialize_bomb+0xb9>
    2ae5:	48 83 c3 08          	add    $0x8,%rbx
    2ae9:	48 8b 7b f8          	mov    -0x8(%rbx),%rdi
    2aed:	48 85 ff             	test   %rdi,%rdi
    2af0:	75 e7                	jne    2ad9 <initialize_bomb+0x54>
    2af2:	48 8d 3d 77 17 00 00 	lea    0x1777(%rip),%rdi        # 4270 <array.0+0x80>
    2af9:	e8 72 f5 ff ff       	callq  2070 <puts@plt>
    2afe:	bf 08 00 00 00       	mov    $0x8,%edi
    2b03:	e8 98 f6 ff ff       	callq  21a0 <exit@plt>
    2b08:	48 8d 3d 29 17 00 00 	lea    0x1729(%rip),%rdi        # 4238 <array.0+0x48>
    2b0f:	e8 5c f5 ff ff       	callq  2070 <puts@plt>
    2b14:	bf 08 00 00 00       	mov    $0x8,%edi
    2b19:	e8 82 f6 ff ff       	callq  21a0 <exit@plt>
    2b1e:	48 8d 74 24 40       	lea    0x40(%rsp),%rsi
    2b23:	48 8d 3d e2 18 00 00 	lea    0x18e2(%rip),%rdi        # 440c <array.0+0x21c>
    2b2a:	b8 00 00 00 00       	mov    $0x0,%eax
    2b2f:	e8 7c f5 ff ff       	callq  20b0 <printf@plt>
    2b34:	bf 08 00 00 00       	mov    $0x8,%edi
    2b39:	e8 62 f6 ff ff       	callq  21a0 <exit@plt>
    2b3e:	48 8d 7c 24 40       	lea    0x40(%rsp),%rdi
    2b43:	e8 61 0e 00 00       	callq  39a9 <init_driver>
    2b48:	85 c0                	test   %eax,%eax
    2b4a:	78 d2                	js     2b1e <initialize_bomb+0x99>
    2b4c:	48 8d 3d d3 18 00 00 	lea    0x18d3(%rip),%rdi        # 4426 <array.0+0x236>
    2b53:	e8 18 f5 ff ff       	callq  2070 <puts@plt>
    2b58:	48 8d 3d d3 18 00 00 	lea    0x18d3(%rip),%rdi        # 4432 <array.0+0x242>
    2b5f:	e8 0c f5 ff ff       	callq  2070 <puts@plt>
    2b64:	48 8d 3d d3 18 00 00 	lea    0x18d3(%rip),%rdi        # 443e <array.0+0x24e>
    2b6b:	e8 00 f5 ff ff       	callq  2070 <puts@plt>
    2b70:	48 8d 3d d3 18 00 00 	lea    0x18d3(%rip),%rdi        # 444a <array.0+0x25a>
    2b77:	e8 f4 f4 ff ff       	callq  2070 <puts@plt>
    2b7c:	48 8d 3d d3 18 00 00 	lea    0x18d3(%rip),%rdi        # 4456 <array.0+0x266>
    2b83:	e8 e8 f4 ff ff       	callq  2070 <puts@plt>
    2b88:	48 8b 84 24 48 20 00 	mov    0x2048(%rsp),%rax
    2b8f:	00 
    2b90:	64 48 2b 04 25 28 00 	sub    %fs:0x28,%rax
    2b97:	00 00 
    2b99:	75 0a                	jne    2ba5 <initialize_bomb+0x120>
    2b9b:	48 81 c4 58 20 00 00 	add    $0x2058,%rsp
    2ba2:	5b                   	pop    %rbx
    2ba3:	5d                   	pop    %rbp
    2ba4:	c3                   	retq   
    2ba5:	e8 f6 f4 ff ff       	callq  20a0 <__stack_chk_fail@plt>

0000000000002baa <initialize_bomb_solve>:
    2baa:	c3                   	retq   

0000000000002bab <blank_line>:
    2bab:	55                   	push   %rbp
    2bac:	53                   	push   %rbx
    2bad:	48 83 ec 08          	sub    $0x8,%rsp
    2bb1:	48 89 fd             	mov    %rdi,%rbp
    2bb4:	0f b6 5d 00          	movzbl 0x0(%rbp),%ebx
    2bb8:	84 db                	test   %bl,%bl
    2bba:	74 1e                	je     2bda <blank_line+0x2f>
    2bbc:	e8 0f f6 ff ff       	callq  21d0 <__ctype_b_loc@plt>
    2bc1:	48 83 c5 01          	add    $0x1,%rbp
    2bc5:	48 0f be db          	movsbq %bl,%rbx
    2bc9:	48 8b 00             	mov    (%rax),%rax
    2bcc:	f6 44 58 01 20       	testb  $0x20,0x1(%rax,%rbx,2)
    2bd1:	75 e1                	jne    2bb4 <blank_line+0x9>
    2bd3:	b8 00 00 00 00       	mov    $0x0,%eax
    2bd8:	eb 05                	jmp    2bdf <blank_line+0x34>
    2bda:	b8 01 00 00 00       	mov    $0x1,%eax
    2bdf:	48 83 c4 08          	add    $0x8,%rsp
    2be3:	5b                   	pop    %rbx
    2be4:	5d                   	pop    %rbp
    2be5:	c3                   	retq   

0000000000002be6 <skip>:
    2be6:	55                   	push   %rbp
    2be7:	53                   	push   %rbx
    2be8:	48 83 ec 08          	sub    $0x8,%rsp
    2bec:	48 8d 2d 8d dc 00 00 	lea    0xdc8d(%rip),%rbp        # 10880 <input_strings>
    2bf3:	48 63 15 7e dc 00 00 	movslq 0xdc7e(%rip),%rdx        # 10878 <num_input_strings>
    2bfa:	48 89 d0             	mov    %rdx,%rax
    2bfd:	48 c1 e0 04          	shl    $0x4,%rax
    2c01:	48 29 d0             	sub    %rdx,%rax
    2c04:	48 8d 7c c5 00       	lea    0x0(%rbp,%rax,8),%rdi
    2c09:	48 8b 15 e0 db 00 00 	mov    0xdbe0(%rip),%rdx        # 107f0 <infile>
    2c10:	be 78 00 00 00       	mov    $0x78,%esi
    2c15:	e8 d6 f4 ff ff       	callq  20f0 <fgets@plt>
    2c1a:	48 89 c3             	mov    %rax,%rbx
    2c1d:	48 85 c0             	test   %rax,%rax
    2c20:	74 0c                	je     2c2e <skip+0x48>
    2c22:	48 89 c7             	mov    %rax,%rdi
    2c25:	e8 81 ff ff ff       	callq  2bab <blank_line>
    2c2a:	85 c0                	test   %eax,%eax
    2c2c:	75 c5                	jne    2bf3 <skip+0xd>
    2c2e:	48 89 d8             	mov    %rbx,%rax
    2c31:	48 83 c4 08          	add    $0x8,%rsp
    2c35:	5b                   	pop    %rbx
    2c36:	5d                   	pop    %rbp
    2c37:	c3                   	retq   

0000000000002c38 <send_msg>:
    2c38:	53                   	push   %rbx
    2c39:	48 81 ec 10 40 00 00 	sub    $0x4010,%rsp
    2c40:	64 48 8b 04 25 28 00 	mov    %fs:0x28,%rax
    2c47:	00 00 
    2c49:	48 89 84 24 08 40 00 	mov    %rax,0x4008(%rsp)
    2c50:	00 
    2c51:	31 c0                	xor    %eax,%eax
    2c53:	44 8b 05 1e dc 00 00 	mov    0xdc1e(%rip),%r8d        # 10878 <num_input_strings>
    2c5a:	41 8d 40 ff          	lea    -0x1(%r8),%eax
    2c5e:	48 98                	cltq   
    2c60:	48 89 c2             	mov    %rax,%rdx
    2c63:	48 c1 e2 04          	shl    $0x4,%rdx
    2c67:	48 29 c2             	sub    %rax,%rdx
    2c6a:	85 ff                	test   %edi,%edi
    2c6c:	48 8d 0d ef 17 00 00 	lea    0x17ef(%rip),%rcx        # 4462 <array.0+0x272>
    2c73:	48 8d 05 f0 17 00 00 	lea    0x17f0(%rip),%rax        # 446a <array.0+0x27a>
    2c7a:	48 0f 44 c8          	cmove  %rax,%rcx
    2c7e:	48 89 e3             	mov    %rsp,%rbx
    2c81:	48 8d 05 f8 db 00 00 	lea    0xdbf8(%rip),%rax        # 10880 <input_strings>
    2c88:	4c 8d 0c d0          	lea    (%rax,%rdx,8),%r9
    2c8c:	8b 15 42 4e 00 00    	mov    0x4e42(%rip),%edx        # 7ad4 <bomb_id>
    2c92:	48 8d 35 da 17 00 00 	lea    0x17da(%rip),%rsi        # 4473 <array.0+0x283>
    2c99:	48 89 df             	mov    %rbx,%rdi
    2c9c:	b8 00 00 00 00       	mov    $0x0,%eax
    2ca1:	e8 ea f4 ff ff       	callq  2190 <sprintf@plt>
    2ca6:	4c 8d 84 24 00 20 00 	lea    0x2000(%rsp),%r8
    2cad:	00 
    2cae:	b9 00 00 00 00       	mov    $0x0,%ecx
    2cb3:	48 89 da             	mov    %rbx,%rdx
    2cb6:	48 8d 35 f3 4d 00 00 	lea    0x4df3(%rip),%rsi        # 7ab0 <user_password>
    2cbd:	48 8d 3d 04 4e 00 00 	lea    0x4e04(%rip),%rdi        # 7ac8 <userid>
    2cc4:	e8 c0 0e 00 00       	callq  3b89 <driver_post>
    2cc9:	85 c0                	test   %eax,%eax
    2ccb:	78 1c                	js     2ce9 <send_msg+0xb1>
    2ccd:	48 8b 84 24 08 40 00 	mov    0x4008(%rsp),%rax
    2cd4:	00 
    2cd5:	64 48 2b 04 25 28 00 	sub    %fs:0x28,%rax
    2cdc:	00 00 
    2cde:	75 20                	jne    2d00 <send_msg+0xc8>
    2ce0:	48 81 c4 10 40 00 00 	add    $0x4010,%rsp
    2ce7:	5b                   	pop    %rbx
    2ce8:	c3                   	retq   
    2ce9:	48 8d bc 24 00 20 00 	lea    0x2000(%rsp),%rdi
    2cf0:	00 
    2cf1:	e8 7a f3 ff ff       	callq  2070 <puts@plt>
    2cf6:	bf 00 00 00 00       	mov    $0x0,%edi
    2cfb:	e8 a0 f4 ff ff       	callq  21a0 <exit@plt>
    2d00:	e8 9b f3 ff ff       	callq  20a0 <__stack_chk_fail@plt>

0000000000002d05 <explode_bomb>:
    2d05:	48 83 ec 08          	sub    $0x8,%rsp
    2d09:	48 8d 3d 98 15 00 00 	lea    0x1598(%rip),%rdi        # 42a8 <array.0+0xb8>
    2d10:	e8 5b f3 ff ff       	callq  2070 <puts@plt>
    2d15:	48 8d 3d 63 17 00 00 	lea    0x1763(%rip),%rdi        # 447f <array.0+0x28f>
    2d1c:	e8 4f f3 ff ff       	callq  2070 <puts@plt>
    2d21:	48 8d 3d 74 17 00 00 	lea    0x1774(%rip),%rdi        # 449c <array.0+0x2ac>
    2d28:	e8 43 f3 ff ff       	callq  2070 <puts@plt>
    2d2d:	48 8d 3d 85 17 00 00 	lea    0x1785(%rip),%rdi        # 44b9 <array.0+0x2c9>
    2d34:	e8 37 f3 ff ff       	callq  2070 <puts@plt>
    2d39:	48 8d 3d 96 17 00 00 	lea    0x1796(%rip),%rdi        # 44d6 <array.0+0x2e6>
    2d40:	e8 2b f3 ff ff       	callq  2070 <puts@plt>
    2d45:	48 8d 3d a7 17 00 00 	lea    0x17a7(%rip),%rdi        # 44f3 <array.0+0x303>
    2d4c:	e8 1f f3 ff ff       	callq  2070 <puts@plt>
    2d51:	48 8d 3d b7 17 00 00 	lea    0x17b7(%rip),%rdi        # 450f <array.0+0x31f>
    2d58:	e8 13 f3 ff ff       	callq  2070 <puts@plt>
    2d5d:	48 8d 3d c8 17 00 00 	lea    0x17c8(%rip),%rdi        # 452c <array.0+0x33c>
    2d64:	e8 07 f3 ff ff       	callq  2070 <puts@plt>
    2d69:	48 8d 3d d9 17 00 00 	lea    0x17d9(%rip),%rdi        # 4549 <array.0+0x359>
    2d70:	e8 fb f2 ff ff       	callq  2070 <puts@plt>
    2d75:	48 8d 3d ea 17 00 00 	lea    0x17ea(%rip),%rdi        # 4566 <array.0+0x376>
    2d7c:	e8 ef f2 ff ff       	callq  2070 <puts@plt>
    2d81:	48 8d 3d fb 17 00 00 	lea    0x17fb(%rip),%rdi        # 4583 <array.0+0x393>
    2d88:	e8 e3 f2 ff ff       	callq  2070 <puts@plt>
    2d8d:	48 8d 3d 0c 18 00 00 	lea    0x180c(%rip),%rdi        # 45a0 <array.0+0x3b0>
    2d94:	e8 d7 f2 ff ff       	callq  2070 <puts@plt>
    2d99:	48 8d 3d 1d 18 00 00 	lea    0x181d(%rip),%rdi        # 45bd <array.0+0x3cd>
    2da0:	e8 cb f2 ff ff       	callq  2070 <puts@plt>
    2da5:	bf 00 00 00 00       	mov    $0x0,%edi
    2daa:	e8 89 fe ff ff       	callq  2c38 <send_msg>
    2daf:	48 8d 3d 3a 15 00 00 	lea    0x153a(%rip),%rdi        # 42f0 <array.0+0x100>
    2db6:	e8 b5 f2 ff ff       	callq  2070 <puts@plt>
    2dbb:	bf 08 00 00 00       	mov    $0x8,%edi
    2dc0:	e8 db f3 ff ff       	callq  21a0 <exit@plt>

0000000000002dc5 <read_six_numbers>:
    2dc5:	48 83 ec 08          	sub    $0x8,%rsp
    2dc9:	48 89 f2             	mov    %rsi,%rdx
    2dcc:	48 8d 4e 04          	lea    0x4(%rsi),%rcx
    2dd0:	48 8d 46 14          	lea    0x14(%rsi),%rax
    2dd4:	50                   	push   %rax
    2dd5:	48 8d 46 10          	lea    0x10(%rsi),%rax
    2dd9:	50                   	push   %rax
    2dda:	4c 8d 4e 0c          	lea    0xc(%rsi),%r9
    2dde:	4c 8d 46 08          	lea    0x8(%rsi),%r8
    2de2:	48 8d 35 ec 17 00 00 	lea    0x17ec(%rip),%rsi        # 45d5 <array.0+0x3e5>
    2de9:	b8 00 00 00 00       	mov    $0x0,%eax
    2dee:	e8 5d f3 ff ff       	callq  2150 <__isoc99_sscanf@plt>
    2df3:	48 83 c4 10          	add    $0x10,%rsp
    2df7:	83 f8 05             	cmp    $0x5,%eax
    2dfa:	7e 05                	jle    2e01 <read_six_numbers+0x3c>
    2dfc:	48 83 c4 08          	add    $0x8,%rsp
    2e00:	c3                   	retq   
    2e01:	e8 ff fe ff ff       	callq  2d05 <explode_bomb>

0000000000002e06 <read_line>:
    2e06:	55                   	push   %rbp
    2e07:	53                   	push   %rbx
    2e08:	48 83 ec 08          	sub    $0x8,%rsp
    2e0c:	b8 00 00 00 00       	mov    $0x0,%eax
    2e11:	e8 d0 fd ff ff       	callq  2be6 <skip>
    2e16:	48 85 c0             	test   %rax,%rax
    2e19:	74 63                	je     2e7e <read_line+0x78>
    2e1b:	8b 1d 57 da 00 00    	mov    0xda57(%rip),%ebx        # 10878 <num_input_strings>
    2e21:	48 63 d3             	movslq %ebx,%rdx
    2e24:	48 89 d0             	mov    %rdx,%rax
    2e27:	48 c1 e0 04          	shl    $0x4,%rax
    2e2b:	48 29 d0             	sub    %rdx,%rax
    2e2e:	48 8d 15 4b da 00 00 	lea    0xda4b(%rip),%rdx        # 10880 <input_strings>
    2e35:	48 8d 2c c2          	lea    (%rdx,%rax,8),%rbp
    2e39:	48 89 ef             	mov    %rbp,%rdi
    2e3c:	e8 4f f2 ff ff       	callq  2090 <strlen@plt>
    2e41:	83 f8 76             	cmp    $0x76,%eax
    2e44:	0f 8f ac 00 00 00    	jg     2ef6 <read_line+0xf0>
    2e4a:	83 e8 01             	sub    $0x1,%eax
    2e4d:	48 98                	cltq   
    2e4f:	48 63 cb             	movslq %ebx,%rcx
    2e52:	48 89 ca             	mov    %rcx,%rdx
    2e55:	48 c1 e2 04          	shl    $0x4,%rdx
    2e59:	48 29 ca             	sub    %rcx,%rdx
    2e5c:	48 8d 0d 1d da 00 00 	lea    0xda1d(%rip),%rcx        # 10880 <input_strings>
    2e63:	48 8d 14 d1          	lea    (%rcx,%rdx,8),%rdx
    2e67:	c6 04 02 00          	movb   $0x0,(%rdx,%rax,1)
    2e6b:	83 c3 01             	add    $0x1,%ebx
    2e6e:	89 1d 04 da 00 00    	mov    %ebx,0xda04(%rip)        # 10878 <num_input_strings>
    2e74:	48 89 e8             	mov    %rbp,%rax
    2e77:	48 83 c4 08          	add    $0x8,%rsp
    2e7b:	5b                   	pop    %rbx
    2e7c:	5d                   	pop    %rbp
    2e7d:	c3                   	retq   
    2e7e:	48 8b 05 4b d9 00 00 	mov    0xd94b(%rip),%rax        # 107d0 <stdin@@GLIBC_2.2.5>
    2e85:	48 39 05 64 d9 00 00 	cmp    %rax,0xd964(%rip)        # 107f0 <infile>
    2e8c:	74 1b                	je     2ea9 <read_line+0xa3>
    2e8e:	48 8d 3d 70 17 00 00 	lea    0x1770(%rip),%rdi        # 4605 <array.0+0x415>
    2e95:	e8 96 f1 ff ff       	callq  2030 <getenv@plt>
    2e9a:	48 85 c0             	test   %rax,%rax
    2e9d:	74 20                	je     2ebf <read_line+0xb9>
    2e9f:	bf 00 00 00 00       	mov    $0x0,%edi
    2ea4:	e8 f7 f2 ff ff       	callq  21a0 <exit@plt>
    2ea9:	48 8d 3d 37 17 00 00 	lea    0x1737(%rip),%rdi        # 45e7 <array.0+0x3f7>
    2eb0:	e8 bb f1 ff ff       	callq  2070 <puts@plt>
    2eb5:	bf 08 00 00 00       	mov    $0x8,%edi
    2eba:	e8 e1 f2 ff ff       	callq  21a0 <exit@plt>
    2ebf:	48 8b 05 0a d9 00 00 	mov    0xd90a(%rip),%rax        # 107d0 <stdin@@GLIBC_2.2.5>
    2ec6:	48 89 05 23 d9 00 00 	mov    %rax,0xd923(%rip)        # 107f0 <infile>
    2ecd:	b8 00 00 00 00       	mov    $0x0,%eax
    2ed2:	e8 0f fd ff ff       	callq  2be6 <skip>
    2ed7:	48 85 c0             	test   %rax,%rax
    2eda:	0f 85 3b ff ff ff    	jne    2e1b <read_line+0x15>
    2ee0:	48 8d 3d 00 17 00 00 	lea    0x1700(%rip),%rdi        # 45e7 <array.0+0x3f7>
    2ee7:	e8 84 f1 ff ff       	callq  2070 <puts@plt>
    2eec:	bf 00 00 00 00       	mov    $0x0,%edi
    2ef1:	e8 aa f2 ff ff       	callq  21a0 <exit@plt>
    2ef6:	48 8d 3d 13 17 00 00 	lea    0x1713(%rip),%rdi        # 4610 <array.0+0x420>
    2efd:	e8 6e f1 ff ff       	callq  2070 <puts@plt>
    2f02:	8b 05 70 d9 00 00    	mov    0xd970(%rip),%eax        # 10878 <num_input_strings>
    2f08:	8d 50 01             	lea    0x1(%rax),%edx
    2f0b:	89 15 67 d9 00 00    	mov    %edx,0xd967(%rip)        # 10878 <num_input_strings>
    2f11:	48 98                	cltq   
    2f13:	48 6b c0 78          	imul   $0x78,%rax,%rax
    2f17:	48 8d 15 62 d9 00 00 	lea    0xd962(%rip),%rdx        # 10880 <input_strings>
    2f1e:	48 be 2a 2a 2a 74 72 	movabs $0x636e7572742a2a2a,%rsi
    2f25:	75 6e 63 
    2f28:	48 bf 61 74 65 64 2a 	movabs $0x2a2a2a64657461,%rdi
    2f2f:	2a 2a 00 
    2f32:	48 89 34 02          	mov    %rsi,(%rdx,%rax,1)
    2f36:	48 89 7c 02 08       	mov    %rdi,0x8(%rdx,%rax,1)
    2f3b:	e8 c5 fd ff ff       	callq  2d05 <explode_bomb>

0000000000002f40 <phase_defused>:
    2f40:	48 81 ec 98 00 00 00 	sub    $0x98,%rsp
    2f47:	64 48 8b 04 25 28 00 	mov    %fs:0x28,%rax
    2f4e:	00 00 
    2f50:	48 89 84 24 88 00 00 	mov    %rax,0x88(%rsp)
    2f57:	00 
    2f58:	31 c0                	xor    %eax,%eax
    2f5a:	bf 01 00 00 00       	mov    $0x1,%edi
    2f5f:	e8 d4 fc ff ff       	callq  2c38 <send_msg>
    2f64:	83 3d 0d d9 00 00 06 	cmpl   $0x6,0xd90d(%rip)        # 10878 <num_input_strings>
    2f6b:	74 1f                	je     2f8c <phase_defused+0x4c>
    2f6d:	48 8b 84 24 88 00 00 	mov    0x88(%rsp),%rax
    2f74:	00 
    2f75:	64 48 2b 04 25 28 00 	sub    %fs:0x28,%rax
    2f7c:	00 00 
    2f7e:	0f 85 87 00 00 00    	jne    300b <phase_defused+0xcb>
    2f84:	48 81 c4 98 00 00 00 	add    $0x98,%rsp
    2f8b:	c3                   	retq   
    2f8c:	48 8d 4c 24 0c       	lea    0xc(%rsp),%rcx
    2f91:	48 8d 54 24 08       	lea    0x8(%rsp),%rdx
    2f96:	4c 8d 44 24 10       	lea    0x10(%rsp),%r8
    2f9b:	48 8d 35 89 16 00 00 	lea    0x1689(%rip),%rsi        # 462b <array.0+0x43b>
    2fa2:	48 8d 3d 3f da 00 00 	lea    0xda3f(%rip),%rdi        # 109e8 <input_strings+0x168>
    2fa9:	b8 00 00 00 00       	mov    $0x0,%eax
    2fae:	e8 9d f1 ff ff       	callq  2150 <__isoc99_sscanf@plt>
    2fb3:	83 f8 03             	cmp    $0x3,%eax
    2fb6:	74 1a                	je     2fd2 <phase_defused+0x92>
    2fb8:	48 8d 3d b9 13 00 00 	lea    0x13b9(%rip),%rdi        # 4378 <array.0+0x188>
    2fbf:	e8 ac f0 ff ff       	callq  2070 <puts@plt>
    2fc4:	48 8d 3d dd 13 00 00 	lea    0x13dd(%rip),%rdi        # 43a8 <array.0+0x1b8>
    2fcb:	e8 a0 f0 ff ff       	callq  2070 <puts@plt>
    2fd0:	eb 9b                	jmp    2f6d <phase_defused+0x2d>
    2fd2:	48 8d 7c 24 10       	lea    0x10(%rsp),%rdi
    2fd7:	48 8d 35 56 16 00 00 	lea    0x1656(%rip),%rsi        # 4634 <array.0+0x444>
    2fde:	e8 46 fa ff ff       	callq  2a29 <strings_not_equal>
    2fe3:	85 c0                	test   %eax,%eax
    2fe5:	75 d1                	jne    2fb8 <phase_defused+0x78>
    2fe7:	48 8d 3d 2a 13 00 00 	lea    0x132a(%rip),%rdi        # 4318 <array.0+0x128>
    2fee:	e8 7d f0 ff ff       	callq  2070 <puts@plt>
    2ff3:	48 8d 3d 46 13 00 00 	lea    0x1346(%rip),%rdi        # 4340 <array.0+0x150>
    2ffa:	e8 71 f0 ff ff       	callq  2070 <puts@plt>
    2fff:	b8 00 00 00 00       	mov    $0x0,%eax
    3004:	e8 45 f9 ff ff       	callq  294e <secret_phase>
    3009:	eb ad                	jmp    2fb8 <phase_defused+0x78>
    300b:	e8 90 f0 ff ff       	callq  20a0 <__stack_chk_fail@plt>

0000000000003010 <sigalrm_handler>:
    3010:	48 83 ec 08          	sub    $0x8,%rsp
    3014:	ba 00 00 00 00       	mov    $0x0,%edx
    3019:	48 8d 35 30 16 00 00 	lea    0x1630(%rip),%rsi        # 4650 <array.0+0x460>
    3020:	48 8b 3d b9 d7 00 00 	mov    0xd7b9(%rip),%rdi        # 107e0 <stderr@@GLIBC_2.2.5>
    3027:	b8 00 00 00 00       	mov    $0x0,%eax
    302c:	e8 ff f0 ff ff       	callq  2130 <fprintf@plt>
    3031:	bf 01 00 00 00       	mov    $0x1,%edi
    3036:	e8 65 f1 ff ff       	callq  21a0 <exit@plt>

000000000000303b <rio_writen>:
    303b:	41 56                	push   %r14
    303d:	41 55                	push   %r13
    303f:	41 54                	push   %r12
    3041:	55                   	push   %rbp
    3042:	53                   	push   %rbx
    3043:	49 89 d5             	mov    %rdx,%r13
    3046:	48 85 d2             	test   %rdx,%rdx
    3049:	74 3b                	je     3086 <rio_writen+0x4b>
    304b:	41 89 fc             	mov    %edi,%r12d
    304e:	48 89 f5             	mov    %rsi,%rbp
    3051:	48 89 d3             	mov    %rdx,%rbx
    3054:	41 be 00 00 00 00    	mov    $0x0,%r14d
    305a:	eb 08                	jmp    3064 <rio_writen+0x29>
    305c:	48 01 c5             	add    %rax,%rbp
    305f:	48 29 c3             	sub    %rax,%rbx
    3062:	74 22                	je     3086 <rio_writen+0x4b>
    3064:	48 89 da             	mov    %rbx,%rdx
    3067:	48 89 ee             	mov    %rbp,%rsi
    306a:	44 89 e7             	mov    %r12d,%edi
    306d:	e8 0e f0 ff ff       	callq  2080 <write@plt>
    3072:	48 85 c0             	test   %rax,%rax
    3075:	7f e5                	jg     305c <rio_writen+0x21>
    3077:	e8 d4 ef ff ff       	callq  2050 <__errno_location@plt>
    307c:	83 38 04             	cmpl   $0x4,(%rax)
    307f:	75 11                	jne    3092 <rio_writen+0x57>
    3081:	4c 89 f0             	mov    %r14,%rax
    3084:	eb d6                	jmp    305c <rio_writen+0x21>
    3086:	4c 89 e8             	mov    %r13,%rax
    3089:	5b                   	pop    %rbx
    308a:	5d                   	pop    %rbp
    308b:	41 5c                	pop    %r12
    308d:	41 5d                	pop    %r13
    308f:	41 5e                	pop    %r14
    3091:	c3                   	retq   
    3092:	48 c7 c0 ff ff ff ff 	mov    $0xffffffffffffffff,%rax
    3099:	eb ee                	jmp    3089 <rio_writen+0x4e>

000000000000309b <rio_readlineb>:
    309b:	41 56                	push   %r14
    309d:	41 55                	push   %r13
    309f:	41 54                	push   %r12
    30a1:	55                   	push   %rbp
    30a2:	53                   	push   %rbx
    30a3:	49 89 f4             	mov    %rsi,%r12
    30a6:	48 83 fa 01          	cmp    $0x1,%rdx
    30aa:	0f 86 92 00 00 00    	jbe    3142 <rio_readlineb+0xa7>
    30b0:	48 89 fb             	mov    %rdi,%rbx
    30b3:	4c 8d 74 16 ff       	lea    -0x1(%rsi,%rdx,1),%r14
    30b8:	41 bd 01 00 00 00    	mov    $0x1,%r13d
    30be:	48 8d 6f 10          	lea    0x10(%rdi),%rbp
    30c2:	eb 56                	jmp    311a <rio_readlineb+0x7f>
    30c4:	e8 87 ef ff ff       	callq  2050 <__errno_location@plt>
    30c9:	83 38 04             	cmpl   $0x4,(%rax)
    30cc:	75 55                	jne    3123 <rio_readlineb+0x88>
    30ce:	ba 00 20 00 00       	mov    $0x2000,%edx
    30d3:	48 89 ee             	mov    %rbp,%rsi
    30d6:	8b 3b                	mov    (%rbx),%edi
    30d8:	e8 03 f0 ff ff       	callq  20e0 <read@plt>
    30dd:	89 c2                	mov    %eax,%edx
    30df:	89 43 04             	mov    %eax,0x4(%rbx)
    30e2:	85 c0                	test   %eax,%eax
    30e4:	78 de                	js     30c4 <rio_readlineb+0x29>
    30e6:	85 c0                	test   %eax,%eax
    30e8:	74 42                	je     312c <rio_readlineb+0x91>
    30ea:	48 89 6b 08          	mov    %rbp,0x8(%rbx)
    30ee:	48 8b 43 08          	mov    0x8(%rbx),%rax
    30f2:	0f b6 08             	movzbl (%rax),%ecx
    30f5:	48 83 c0 01          	add    $0x1,%rax
    30f9:	48 89 43 08          	mov    %rax,0x8(%rbx)
    30fd:	83 ea 01             	sub    $0x1,%edx
    3100:	89 53 04             	mov    %edx,0x4(%rbx)
    3103:	49 83 c4 01          	add    $0x1,%r12
    3107:	41 88 4c 24 ff       	mov    %cl,-0x1(%r12)
    310c:	80 f9 0a             	cmp    $0xa,%cl
    310f:	74 3c                	je     314d <rio_readlineb+0xb2>
    3111:	41 83 c5 01          	add    $0x1,%r13d
    3115:	4d 39 f4             	cmp    %r14,%r12
    3118:	74 30                	je     314a <rio_readlineb+0xaf>
    311a:	8b 53 04             	mov    0x4(%rbx),%edx
    311d:	85 d2                	test   %edx,%edx
    311f:	7e ad                	jle    30ce <rio_readlineb+0x33>
    3121:	eb cb                	jmp    30ee <rio_readlineb+0x53>
    3123:	48 c7 c0 ff ff ff ff 	mov    $0xffffffffffffffff,%rax
    312a:	eb 05                	jmp    3131 <rio_readlineb+0x96>
    312c:	b8 00 00 00 00       	mov    $0x0,%eax
    3131:	85 c0                	test   %eax,%eax
    3133:	75 29                	jne    315e <rio_readlineb+0xc3>
    3135:	b8 00 00 00 00       	mov    $0x0,%eax
    313a:	41 83 fd 01          	cmp    $0x1,%r13d
    313e:	75 0d                	jne    314d <rio_readlineb+0xb2>
    3140:	eb 13                	jmp    3155 <rio_readlineb+0xba>
    3142:	41 bd 01 00 00 00    	mov    $0x1,%r13d
    3148:	eb 03                	jmp    314d <rio_readlineb+0xb2>
    314a:	4d 89 f4             	mov    %r14,%r12
    314d:	41 c6 04 24 00       	movb   $0x0,(%r12)
    3152:	49 63 c5             	movslq %r13d,%rax
    3155:	5b                   	pop    %rbx
    3156:	5d                   	pop    %rbp
    3157:	41 5c                	pop    %r12
    3159:	41 5d                	pop    %r13
    315b:	41 5e                	pop    %r14
    315d:	c3                   	retq   
    315e:	48 c7 c0 ff ff ff ff 	mov    $0xffffffffffffffff,%rax
    3165:	eb ee                	jmp    3155 <rio_readlineb+0xba>

0000000000003167 <submitr>:
    3167:	41 57                	push   %r15
    3169:	41 56                	push   %r14
    316b:	41 55                	push   %r13
    316d:	41 54                	push   %r12
    316f:	55                   	push   %rbp
    3170:	53                   	push   %rbx
    3171:	48 81 ec 78 a0 00 00 	sub    $0xa078,%rsp
    3178:	48 89 7c 24 08       	mov    %rdi,0x8(%rsp)
    317d:	89 f5                	mov    %esi,%ebp
    317f:	49 89 d4             	mov    %rdx,%r12
    3182:	48 89 4c 24 10       	mov    %rcx,0x10(%rsp)
    3187:	4c 89 44 24 20       	mov    %r8,0x20(%rsp)
    318c:	4c 89 4c 24 18       	mov    %r9,0x18(%rsp)
    3191:	48 8b 9c 24 b0 a0 00 	mov    0xa0b0(%rsp),%rbx
    3198:	00 
    3199:	4c 8b bc 24 b8 a0 00 	mov    0xa0b8(%rsp),%r15
    31a0:	00 
    31a1:	64 48 8b 04 25 28 00 	mov    %fs:0x28,%rax
    31a8:	00 00 
    31aa:	48 89 84 24 68 a0 00 	mov    %rax,0xa068(%rsp)
    31b1:	00 
    31b2:	31 c0                	xor    %eax,%eax
    31b4:	c7 44 24 3c 00 00 00 	movl   $0x0,0x3c(%rsp)
    31bb:	00 
    31bc:	ba 00 00 00 00       	mov    $0x0,%edx
    31c1:	be 01 00 00 00       	mov    $0x1,%esi
    31c6:	bf 02 00 00 00       	mov    $0x2,%edi
    31cb:	e8 10 f0 ff ff       	callq  21e0 <socket@plt>
    31d0:	85 c0                	test   %eax,%eax
    31d2:	0f 88 0d 01 00 00    	js     32e5 <submitr+0x17e>
    31d8:	41 89 c6             	mov    %eax,%r14d
    31db:	48 8b 7c 24 08       	mov    0x8(%rsp),%rdi
    31e0:	e8 3b ef ff ff       	callq  2120 <gethostbyname@plt>
    31e5:	48 85 c0             	test   %rax,%rax
    31e8:	0f 84 47 01 00 00    	je     3335 <submitr+0x1ce>
    31ee:	4c 8d 6c 24 40       	lea    0x40(%rsp),%r13
    31f3:	48 c7 44 24 40 00 00 	movq   $0x0,0x40(%rsp)
    31fa:	00 00 
    31fc:	48 c7 44 24 48 00 00 	movq   $0x0,0x48(%rsp)
    3203:	00 00 
    3205:	66 c7 44 24 40 02 00 	movw   $0x2,0x40(%rsp)
    320c:	48 63 50 14          	movslq 0x14(%rax),%rdx
    3210:	48 8b 40 18          	mov    0x18(%rax),%rax
    3214:	48 8d 7c 24 44       	lea    0x44(%rsp),%rdi
    3219:	48 8b 30             	mov    (%rax),%rsi
    321c:	e8 3f ef ff ff       	callq  2160 <memmove@plt>
    3221:	66 c1 c5 08          	rol    $0x8,%bp
    3225:	66 89 6c 24 42       	mov    %bp,0x42(%rsp)
    322a:	ba 10 00 00 00       	mov    $0x10,%edx
    322f:	4c 89 ee             	mov    %r13,%rsi
    3232:	44 89 f7             	mov    %r14d,%edi
    3235:	e8 76 ef ff ff       	callq  21b0 <connect@plt>
    323a:	85 c0                	test   %eax,%eax
    323c:	0f 88 5e 01 00 00    	js     33a0 <submitr+0x239>
    3242:	48 89 df             	mov    %rbx,%rdi
    3245:	e8 46 ee ff ff       	callq  2090 <strlen@plt>
    324a:	48 89 c5             	mov    %rax,%rbp
    324d:	4c 89 e7             	mov    %r12,%rdi
    3250:	e8 3b ee ff ff       	callq  2090 <strlen@plt>
    3255:	49 89 c5             	mov    %rax,%r13
    3258:	48 8b 7c 24 10       	mov    0x10(%rsp),%rdi
    325d:	e8 2e ee ff ff       	callq  2090 <strlen@plt>
    3262:	49 89 c4             	mov    %rax,%r12
    3265:	48 8b 7c 24 18       	mov    0x18(%rsp),%rdi
    326a:	e8 21 ee ff ff       	callq  2090 <strlen@plt>
    326f:	48 89 c2             	mov    %rax,%rdx
    3272:	4b 8d 84 25 80 00 00 	lea    0x80(%r13,%r12,1),%rax
    3279:	00 
    327a:	48 01 d0             	add    %rdx,%rax
    327d:	48 8d 54 6d 00       	lea    0x0(%rbp,%rbp,2),%rdx
    3282:	48 01 d0             	add    %rdx,%rax
    3285:	48 3d 00 20 00 00    	cmp    $0x2000,%rax
    328b:	0f 87 6c 01 00 00    	ja     33fd <submitr+0x296>
    3291:	48 8d 94 24 60 40 00 	lea    0x4060(%rsp),%rdx
    3298:	00 
    3299:	b9 00 04 00 00       	mov    $0x400,%ecx
    329e:	b8 00 00 00 00       	mov    $0x0,%eax
    32a3:	48 89 d7             	mov    %rdx,%rdi
    32a6:	f3 48 ab             	rep stos %rax,%es:(%rdi)
    32a9:	48 89 df             	mov    %rbx,%rdi
    32ac:	e8 df ed ff ff       	callq  2090 <strlen@plt>
    32b1:	85 c0                	test   %eax,%eax
    32b3:	0f 84 13 05 00 00    	je     37cc <submitr+0x665>
    32b9:	8d 40 ff             	lea    -0x1(%rax),%eax
    32bc:	4c 8d 64 03 01       	lea    0x1(%rbx,%rax,1),%r12
    32c1:	48 8d ac 24 60 40 00 	lea    0x4060(%rsp),%rbp
    32c8:	00 
    32c9:	48 8d 84 24 60 80 00 	lea    0x8060(%rsp),%rax
    32d0:	00 
    32d1:	48 89 44 24 28       	mov    %rax,0x28(%rsp)
    32d6:	49 bd d9 ff 00 00 00 	movabs $0x2000000000ffd9,%r13
    32dd:	00 20 00 
    32e0:	e9 a5 01 00 00       	jmpq   348a <submitr+0x323>
    32e5:	48 b8 45 72 72 6f 72 	movabs $0x43203a726f727245,%rax
    32ec:	3a 20 43 
    32ef:	48 ba 6c 69 65 6e 74 	movabs $0x6e7520746e65696c,%rdx
    32f6:	20 75 6e 
    32f9:	49 89 07             	mov    %rax,(%r15)
    32fc:	49 89 57 08          	mov    %rdx,0x8(%r15)
    3300:	48 b8 61 62 6c 65 20 	movabs $0x206f7420656c6261,%rax
    3307:	74 6f 20 
    330a:	48 ba 63 72 65 61 74 	movabs $0x7320657461657263,%rdx
    3311:	65 20 73 
    3314:	49 89 47 10          	mov    %rax,0x10(%r15)
    3318:	49 89 57 18          	mov    %rdx,0x18(%r15)
    331c:	41 c7 47 20 6f 63 6b 	movl   $0x656b636f,0x20(%r15)
    3323:	65 
    3324:	66 41 c7 47 24 74 00 	movw   $0x74,0x24(%r15)
    332b:	b8 ff ff ff ff       	mov    $0xffffffff,%eax
    3330:	e9 6e 03 00 00       	jmpq   36a3 <submitr+0x53c>
    3335:	48 b8 45 72 72 6f 72 	movabs $0x44203a726f727245,%rax
    333c:	3a 20 44 
    333f:	48 ba 4e 53 20 69 73 	movabs $0x6e7520736920534e,%rdx
    3346:	20 75 6e 
    3349:	49 89 07             	mov    %rax,(%r15)
    334c:	49 89 57 08          	mov    %rdx,0x8(%r15)
    3350:	48 b8 61 62 6c 65 20 	movabs $0x206f7420656c6261,%rax
    3357:	74 6f 20 
    335a:	48 ba 72 65 73 6f 6c 	movabs $0x2065766c6f736572,%rdx
    3361:	76 65 20 
    3364:	49 89 47 10          	mov    %rax,0x10(%r15)
    3368:	49 89 57 18          	mov    %rdx,0x18(%r15)
    336c:	48 b8 73 65 72 76 65 	movabs $0x6120726576726573,%rax
    3373:	72 20 61 
    3376:	49 89 47 20          	mov    %rax,0x20(%r15)
    337a:	41 c7 47 28 64 64 72 	movl   $0x65726464,0x28(%r15)
    3381:	65 
    3382:	66 41 c7 47 2c 73 73 	movw   $0x7373,0x2c(%r15)
    3389:	41 c6 47 2e 00       	movb   $0x0,0x2e(%r15)
    338e:	44 89 f7             	mov    %r14d,%edi
    3391:	e8 3a ed ff ff       	callq  20d0 <close@plt>
    3396:	b8 ff ff ff ff       	mov    $0xffffffff,%eax
    339b:	e9 03 03 00 00       	jmpq   36a3 <submitr+0x53c>
    33a0:	48 b8 45 72 72 6f 72 	movabs $0x55203a726f727245,%rax
    33a7:	3a 20 55 
    33aa:	48 ba 6e 61 62 6c 65 	movabs $0x6f7420656c62616e,%rdx
    33b1:	20 74 6f 
    33b4:	49 89 07             	mov    %rax,(%r15)
    33b7:	49 89 57 08          	mov    %rdx,0x8(%r15)
    33bb:	48 b8 20 63 6f 6e 6e 	movabs $0x7463656e6e6f6320,%rax
    33c2:	65 63 74 
    33c5:	48 ba 20 74 6f 20 74 	movabs $0x20656874206f7420,%rdx
    33cc:	68 65 20 
    33cf:	49 89 47 10          	mov    %rax,0x10(%r15)
    33d3:	49 89 57 18          	mov    %rdx,0x18(%r15)
    33d7:	41 c7 47 20 73 65 72 	movl   $0x76726573,0x20(%r15)
    33de:	76 
    33df:	66 41 c7 47 24 65 72 	movw   $0x7265,0x24(%r15)
    33e6:	41 c6 47 26 00       	movb   $0x0,0x26(%r15)
    33eb:	44 89 f7             	mov    %r14d,%edi
    33ee:	e8 dd ec ff ff       	callq  20d0 <close@plt>
    33f3:	b8 ff ff ff ff       	mov    $0xffffffff,%eax
    33f8:	e9 a6 02 00 00       	jmpq   36a3 <submitr+0x53c>
    33fd:	48 b8 45 72 72 6f 72 	movabs $0x52203a726f727245,%rax
    3404:	3a 20 52 
    3407:	48 ba 65 73 75 6c 74 	movabs $0x747320746c757365,%rdx
    340e:	20 73 74 
    3411:	49 89 07             	mov    %rax,(%r15)
    3414:	49 89 57 08          	mov    %rdx,0x8(%r15)
    3418:	48 b8 72 69 6e 67 20 	movabs $0x6f6f7420676e6972,%rax
    341f:	74 6f 6f 
    3422:	48 ba 20 6c 61 72 67 	movabs $0x202e656772616c20,%rdx
    3429:	65 2e 20 
    342c:	49 89 47 10          	mov    %rax,0x10(%r15)
    3430:	49 89 57 18          	mov    %rdx,0x18(%r15)
    3434:	48 b8 49 6e 63 72 65 	movabs $0x6573616572636e49,%rax
    343b:	61 73 65 
    343e:	48 ba 20 53 55 42 4d 	movabs $0x5254494d42555320,%rdx
    3445:	49 54 52 
    3448:	49 89 47 20          	mov    %rax,0x20(%r15)
    344c:	49 89 57 28          	mov    %rdx,0x28(%r15)
    3450:	48 b8 5f 4d 41 58 42 	movabs $0x46554258414d5f,%rax
    3457:	55 46 00 
    345a:	49 89 47 30          	mov    %rax,0x30(%r15)
    345e:	44 89 f7             	mov    %r14d,%edi
    3461:	e8 6a ec ff ff       	callq  20d0 <close@plt>
    3466:	b8 ff ff ff ff       	mov    $0xffffffff,%eax
    346b:	e9 33 02 00 00       	jmpq   36a3 <submitr+0x53c>
    3470:	49 0f a3 c5          	bt     %rax,%r13
    3474:	73 1e                	jae    3494 <submitr+0x32d>
    3476:	88 55 00             	mov    %dl,0x0(%rbp)
    3479:	48 8d 6d 01          	lea    0x1(%rbp),%rbp
    347d:	48 83 c3 01          	add    $0x1,%rbx
    3481:	4c 39 e3             	cmp    %r12,%rbx
    3484:	0f 84 42 03 00 00    	je     37cc <submitr+0x665>
    348a:	0f b6 13             	movzbl (%rbx),%edx
    348d:	8d 42 d6             	lea    -0x2a(%rdx),%eax
    3490:	3c 35                	cmp    $0x35,%al
    3492:	76 dc                	jbe    3470 <submitr+0x309>
    3494:	89 d0                	mov    %edx,%eax
    3496:	83 e0 df             	and    $0xffffffdf,%eax
    3499:	83 e8 41             	sub    $0x41,%eax
    349c:	3c 19                	cmp    $0x19,%al
    349e:	76 d6                	jbe    3476 <submitr+0x30f>
    34a0:	80 fa 20             	cmp    $0x20,%dl
    34a3:	74 50                	je     34f5 <submitr+0x38e>
    34a5:	8d 42 e0             	lea    -0x20(%rdx),%eax
    34a8:	3c 5f                	cmp    $0x5f,%al
    34aa:	76 09                	jbe    34b5 <submitr+0x34e>
    34ac:	80 fa 09             	cmp    $0x9,%dl
    34af:	0f 85 8a 02 00 00    	jne    373f <submitr+0x5d8>
    34b5:	0f b6 d2             	movzbl %dl,%edx
    34b8:	48 8d 35 5f 12 00 00 	lea    0x125f(%rip),%rsi        # 471e <array.0+0x52e>
    34bf:	48 8b 7c 24 28       	mov    0x28(%rsp),%rdi
    34c4:	b8 00 00 00 00       	mov    $0x0,%eax
    34c9:	e8 c2 ec ff ff       	callq  2190 <sprintf@plt>
    34ce:	0f b6 84 24 60 80 00 	movzbl 0x8060(%rsp),%eax
    34d5:	00 
    34d6:	88 45 00             	mov    %al,0x0(%rbp)
    34d9:	0f b6 84 24 61 80 00 	movzbl 0x8061(%rsp),%eax
    34e0:	00 
    34e1:	88 45 01             	mov    %al,0x1(%rbp)
    34e4:	0f b6 84 24 62 80 00 	movzbl 0x8062(%rsp),%eax
    34eb:	00 
    34ec:	88 45 02             	mov    %al,0x2(%rbp)
    34ef:	48 8d 6d 03          	lea    0x3(%rbp),%rbp
    34f3:	eb 88                	jmp    347d <submitr+0x316>
    34f5:	c6 45 00 2b          	movb   $0x2b,0x0(%rbp)
    34f9:	48 8d 6d 01          	lea    0x1(%rbp),%rbp
    34fd:	e9 7b ff ff ff       	jmpq   347d <submitr+0x316>
    3502:	48 b8 45 72 72 6f 72 	movabs $0x43203a726f727245,%rax
    3509:	3a 20 43 
    350c:	48 ba 6c 69 65 6e 74 	movabs $0x6e7520746e65696c,%rdx
    3513:	20 75 6e 
    3516:	49 89 07             	mov    %rax,(%r15)
    3519:	49 89 57 08          	mov    %rdx,0x8(%r15)
    351d:	48 b8 61 62 6c 65 20 	movabs $0x206f7420656c6261,%rax
    3524:	74 6f 20 
    3527:	48 ba 77 72 69 74 65 	movabs $0x6f74206574697277,%rdx
    352e:	20 74 6f 
    3531:	49 89 47 10          	mov    %rax,0x10(%r15)
    3535:	49 89 57 18          	mov    %rdx,0x18(%r15)
    3539:	48 b8 20 74 68 65 20 	movabs $0x7265732065687420,%rax
    3540:	73 65 72 
    3543:	49 89 47 20          	mov    %rax,0x20(%r15)
    3547:	41 c7 47 28 76 65 72 	movl   $0x726576,0x28(%r15)
    354e:	00 
    354f:	44 89 f7             	mov    %r14d,%edi
    3552:	e8 79 eb ff ff       	callq  20d0 <close@plt>
    3557:	b8 ff ff ff ff       	mov    $0xffffffff,%eax
    355c:	e9 42 01 00 00       	jmpq   36a3 <submitr+0x53c>
    3561:	48 b8 45 72 72 6f 72 	movabs $0x43203a726f727245,%rax
    3568:	3a 20 43 
    356b:	48 ba 6c 69 65 6e 74 	movabs $0x6e7520746e65696c,%rdx
    3572:	20 75 6e 
    3575:	49 89 07             	mov    %rax,(%r15)
    3578:	49 89 57 08          	mov    %rdx,0x8(%r15)
    357c:	48 b8 61 62 6c 65 20 	movabs $0x206f7420656c6261,%rax
    3583:	74 6f 20 
    3586:	48 ba 77 72 69 74 65 	movabs $0x6f74206574697277,%rdx
    358d:	20 74 6f 
    3590:	49 89 47 10          	mov    %rax,0x10(%r15)
    3594:	49 89 57 18          	mov    %rdx,0x18(%r15)
    3598:	48 b8 20 74 68 65 20 	movabs $0x7265732065687420,%rax
    359f:	73 65 72 
    35a2:	49 89 47 20          	mov    %rax,0x20(%r15)
    35a6:	41 c7 47 28 76 65 72 	movl   $0x726576,0x28(%r15)
    35ad:	00 
    35ae:	44 89 f7             	mov    %r14d,%edi
    35b1:	e8 1a eb ff ff       	callq  20d0 <close@plt>
    35b6:	b8 ff ff ff ff       	mov    $0xffffffff,%eax
    35bb:	e9 e3 00 00 00       	jmpq   36a3 <submitr+0x53c>
    35c0:	48 b8 45 72 72 6f 72 	movabs $0x43203a726f727245,%rax
    35c7:	3a 20 43 
    35ca:	48 ba 6c 69 65 6e 74 	movabs $0x6e7520746e65696c,%rdx
    35d1:	20 75 6e 
    35d4:	49 89 07             	mov    %rax,(%r15)
    35d7:	49 89 57 08          	mov    %rdx,0x8(%r15)
    35db:	48 b8 61 62 6c 65 20 	movabs $0x206f7420656c6261,%rax
    35e2:	74 6f 20 
    35e5:	48 ba 72 65 61 64 20 	movabs $0x7269662064616572,%rdx
    35ec:	66 69 72 
    35ef:	49 89 47 10          	mov    %rax,0x10(%r15)
    35f3:	49 89 57 18          	mov    %rdx,0x18(%r15)
    35f7:	48 b8 73 74 20 68 65 	movabs $0x6564616568207473,%rax
    35fe:	61 64 65 
    3601:	48 ba 72 20 66 72 6f 	movabs $0x73206d6f72662072,%rdx
    3608:	6d 20 73 
    360b:	49 89 47 20          	mov    %rax,0x20(%r15)
    360f:	49 89 57 28          	mov    %rdx,0x28(%r15)
    3613:	41 c7 47 30 65 72 76 	movl   $0x65767265,0x30(%r15)
    361a:	65 
    361b:	66 41 c7 47 34 72 00 	movw   $0x72,0x34(%r15)
    3622:	44 89 f7             	mov    %r14d,%edi
    3625:	e8 a6 ea ff ff       	callq  20d0 <close@plt>
    362a:	b8 ff ff ff ff       	mov    $0xffffffff,%eax
    362f:	eb 72                	jmp    36a3 <submitr+0x53c>
    3631:	48 8d 8c 24 60 80 00 	lea    0x8060(%rsp),%rcx
    3638:	00 
    3639:	48 8d 35 38 10 00 00 	lea    0x1038(%rip),%rsi        # 4678 <array.0+0x488>
    3640:	4c 89 ff             	mov    %r15,%rdi
    3643:	b8 00 00 00 00       	mov    $0x0,%eax
    3648:	e8 43 eb ff ff       	callq  2190 <sprintf@plt>
    364d:	44 89 f7             	mov    %r14d,%edi
    3650:	e8 7b ea ff ff       	callq  20d0 <close@plt>
    3655:	b8 ff ff ff ff       	mov    $0xffffffff,%eax
    365a:	eb 47                	jmp    36a3 <submitr+0x53c>
    365c:	48 8d b4 24 60 20 00 	lea    0x2060(%rsp),%rsi
    3663:	00 
    3664:	48 8d 7c 24 50       	lea    0x50(%rsp),%rdi
    3669:	ba 00 20 00 00       	mov    $0x2000,%edx
    366e:	e8 28 fa ff ff       	callq  309b <rio_readlineb>
    3673:	48 85 c0             	test   %rax,%rax
    3676:	7e 54                	jle    36cc <submitr+0x565>
    3678:	48 8d b4 24 60 20 00 	lea    0x2060(%rsp),%rsi
    367f:	00 
    3680:	4c 89 ff             	mov    %r15,%rdi
    3683:	e8 d8 e9 ff ff       	callq  2060 <strcpy@plt>
    3688:	44 89 f7             	mov    %r14d,%edi
    368b:	e8 40 ea ff ff       	callq  20d0 <close@plt>
    3690:	48 8d 35 ac 10 00 00 	lea    0x10ac(%rip),%rsi        # 4743 <array.0+0x553>
    3697:	4c 89 ff             	mov    %r15,%rdi
    369a:	e8 61 ea ff ff       	callq  2100 <strcmp@plt>
    369f:	f7 d8                	neg    %eax
    36a1:	19 c0                	sbb    %eax,%eax
    36a3:	48 8b 94 24 68 a0 00 	mov    0xa068(%rsp),%rdx
    36aa:	00 
    36ab:	64 48 2b 14 25 28 00 	sub    %fs:0x28,%rdx
    36b2:	00 00 
    36b4:	0f 85 be 02 00 00    	jne    3978 <submitr+0x811>
    36ba:	48 81 c4 78 a0 00 00 	add    $0xa078,%rsp
    36c1:	5b                   	pop    %rbx
    36c2:	5d                   	pop    %rbp
    36c3:	41 5c                	pop    %r12
    36c5:	41 5d                	pop    %r13
    36c7:	41 5e                	pop    %r14
    36c9:	41 5f                	pop    %r15
    36cb:	c3                   	retq   
    36cc:	48 b8 45 72 72 6f 72 	movabs $0x43203a726f727245,%rax
    36d3:	3a 20 43 
    36d6:	48 ba 6c 69 65 6e 74 	movabs $0x6e7520746e65696c,%rdx
    36dd:	20 75 6e 
    36e0:	49 89 07             	mov    %rax,(%r15)
    36e3:	49 89 57 08          	mov    %rdx,0x8(%r15)
    36e7:	48 b8 61 62 6c 65 20 	movabs $0x206f7420656c6261,%rax
    36ee:	74 6f 20 
    36f1:	48 ba 72 65 61 64 20 	movabs $0x6174732064616572,%rdx
    36f8:	73 74 61 
    36fb:	49 89 47 10          	mov    %rax,0x10(%r15)
    36ff:	49 89 57 18          	mov    %rdx,0x18(%r15)
    3703:	48 b8 74 75 73 20 6d 	movabs $0x7373656d20737574,%rax
    370a:	65 73 73 
    370d:	48 ba 61 67 65 20 66 	movabs $0x6d6f726620656761,%rdx
    3714:	72 6f 6d 
    3717:	49 89 47 20          	mov    %rax,0x20(%r15)
    371b:	49 89 57 28          	mov    %rdx,0x28(%r15)
    371f:	48 b8 20 73 65 72 76 	movabs $0x72657672657320,%rax
    3726:	65 72 00 
    3729:	49 89 47 30          	mov    %rax,0x30(%r15)
    372d:	44 89 f7             	mov    %r14d,%edi
    3730:	e8 9b e9 ff ff       	callq  20d0 <close@plt>
    3735:	b8 ff ff ff ff       	mov    $0xffffffff,%eax
    373a:	e9 64 ff ff ff       	jmpq   36a3 <submitr+0x53c>
    373f:	48 b8 45 72 72 6f 72 	movabs $0x52203a726f727245,%rax
    3746:	3a 20 52 
    3749:	48 ba 65 73 75 6c 74 	movabs $0x747320746c757365,%rdx
    3750:	20 73 74 
    3753:	49 89 07             	mov    %rax,(%r15)
    3756:	49 89 57 08          	mov    %rdx,0x8(%r15)
    375a:	48 b8 72 69 6e 67 20 	movabs $0x6e6f6320676e6972,%rax
    3761:	63 6f 6e 
    3764:	48 ba 74 61 69 6e 73 	movabs $0x6e6120736e696174,%rdx
    376b:	20 61 6e 
    376e:	49 89 47 10          	mov    %rax,0x10(%r15)
    3772:	49 89 57 18          	mov    %rdx,0x18(%r15)
    3776:	48 b8 20 69 6c 6c 65 	movabs $0x6c6167656c6c6920,%rax
    377d:	67 61 6c 
    3780:	48 ba 20 6f 72 20 75 	movabs $0x72706e7520726f20,%rdx
    3787:	6e 70 72 
    378a:	49 89 47 20          	mov    %rax,0x20(%r15)
    378e:	49 89 57 28          	mov    %rdx,0x28(%r15)
    3792:	48 b8 69 6e 74 61 62 	movabs $0x20656c6261746e69,%rax
    3799:	6c 65 20 
    379c:	48 ba 63 68 61 72 61 	movabs $0x6574636172616863,%rdx
    37a3:	63 74 65 
    37a6:	49 89 47 30          	mov    %rax,0x30(%r15)
    37aa:	49 89 57 38          	mov    %rdx,0x38(%r15)
    37ae:	66 41 c7 47 40 72 2e 	movw   $0x2e72,0x40(%r15)
    37b5:	41 c6 47 42 00       	movb   $0x0,0x42(%r15)
    37ba:	44 89 f7             	mov    %r14d,%edi
    37bd:	e8 0e e9 ff ff       	callq  20d0 <close@plt>
    37c2:	b8 ff ff ff ff       	mov    $0xffffffff,%eax
    37c7:	e9 d7 fe ff ff       	jmpq   36a3 <submitr+0x53c>
    37cc:	48 8d 9c 24 60 20 00 	lea    0x2060(%rsp),%rbx
    37d3:	00 
    37d4:	4c 8d 8c 24 60 40 00 	lea    0x4060(%rsp),%r9
    37db:	00 
    37dc:	4c 8b 44 24 18       	mov    0x18(%rsp),%r8
    37e1:	48 8b 4c 24 20       	mov    0x20(%rsp),%rcx
    37e6:	48 8b 54 24 10       	mov    0x10(%rsp),%rdx
    37eb:	48 8d 35 b6 0e 00 00 	lea    0xeb6(%rip),%rsi        # 46a8 <array.0+0x4b8>
    37f2:	48 89 df             	mov    %rbx,%rdi
    37f5:	b8 00 00 00 00       	mov    $0x0,%eax
    37fa:	e8 91 e9 ff ff       	callq  2190 <sprintf@plt>
    37ff:	48 89 df             	mov    %rbx,%rdi
    3802:	e8 89 e8 ff ff       	callq  2090 <strlen@plt>
    3807:	48 89 c2             	mov    %rax,%rdx
    380a:	48 89 de             	mov    %rbx,%rsi
    380d:	44 89 f7             	mov    %r14d,%edi
    3810:	e8 26 f8 ff ff       	callq  303b <rio_writen>
    3815:	48 85 c0             	test   %rax,%rax
    3818:	0f 88 e4 fc ff ff    	js     3502 <submitr+0x39b>
    381e:	48 8d 9c 24 60 20 00 	lea    0x2060(%rsp),%rbx
    3825:	00 
    3826:	48 8b 54 24 08       	mov    0x8(%rsp),%rdx
    382b:	48 8d 35 f3 0e 00 00 	lea    0xef3(%rip),%rsi        # 4725 <array.0+0x535>
    3832:	48 89 df             	mov    %rbx,%rdi
    3835:	b8 00 00 00 00       	mov    $0x0,%eax
    383a:	e8 51 e9 ff ff       	callq  2190 <sprintf@plt>
    383f:	48 89 df             	mov    %rbx,%rdi
    3842:	e8 49 e8 ff ff       	callq  2090 <strlen@plt>
    3847:	48 89 c2             	mov    %rax,%rdx
    384a:	48 89 de             	mov    %rbx,%rsi
    384d:	44 89 f7             	mov    %r14d,%edi
    3850:	e8 e6 f7 ff ff       	callq  303b <rio_writen>
    3855:	48 85 c0             	test   %rax,%rax
    3858:	0f 88 03 fd ff ff    	js     3561 <submitr+0x3fa>
    385e:	44 89 74 24 50       	mov    %r14d,0x50(%rsp)
    3863:	c7 44 24 54 00 00 00 	movl   $0x0,0x54(%rsp)
    386a:	00 
    386b:	48 8d 7c 24 50       	lea    0x50(%rsp),%rdi
    3870:	48 8d 44 24 60       	lea    0x60(%rsp),%rax
    3875:	48 89 44 24 58       	mov    %rax,0x58(%rsp)
    387a:	48 8d b4 24 60 20 00 	lea    0x2060(%rsp),%rsi
    3881:	00 
    3882:	ba 00 20 00 00       	mov    $0x2000,%edx
    3887:	e8 0f f8 ff ff       	callq  309b <rio_readlineb>
    388c:	48 85 c0             	test   %rax,%rax
    388f:	0f 8e 2b fd ff ff    	jle    35c0 <submitr+0x459>
    3895:	48 8d 4c 24 3c       	lea    0x3c(%rsp),%rcx
    389a:	48 8d 94 24 60 60 00 	lea    0x6060(%rsp),%rdx
    38a1:	00 
    38a2:	48 8d bc 24 60 20 00 	lea    0x2060(%rsp),%rdi
    38a9:	00 
    38aa:	4c 8d 84 24 60 80 00 	lea    0x8060(%rsp),%r8
    38b1:	00 
    38b2:	48 8d 35 79 0e 00 00 	lea    0xe79(%rip),%rsi        # 4732 <array.0+0x542>
    38b9:	b8 00 00 00 00       	mov    $0x0,%eax
    38be:	e8 8d e8 ff ff       	callq  2150 <__isoc99_sscanf@plt>
    38c3:	8b 54 24 3c          	mov    0x3c(%rsp),%edx
    38c7:	81 fa c8 00 00 00    	cmp    $0xc8,%edx
    38cd:	0f 85 5e fd ff ff    	jne    3631 <submitr+0x4ca>
    38d3:	48 8d 1d 55 0e 00 00 	lea    0xe55(%rip),%rbx        # 472f <array.0+0x53f>
    38da:	48 8d bc 24 60 20 00 	lea    0x2060(%rsp),%rdi
    38e1:	00 
    38e2:	48 89 de             	mov    %rbx,%rsi
    38e5:	e8 16 e8 ff ff       	callq  2100 <strcmp@plt>
    38ea:	85 c0                	test   %eax,%eax
    38ec:	0f 84 6a fd ff ff    	je     365c <submitr+0x4f5>
    38f2:	48 8d b4 24 60 20 00 	lea    0x2060(%rsp),%rsi
    38f9:	00 
    38fa:	48 8d 7c 24 50       	lea    0x50(%rsp),%rdi
    38ff:	ba 00 20 00 00       	mov    $0x2000,%edx
    3904:	e8 92 f7 ff ff       	callq  309b <rio_readlineb>
    3909:	48 85 c0             	test   %rax,%rax
    390c:	7f cc                	jg     38da <submitr+0x773>
    390e:	48 b8 45 72 72 6f 72 	movabs $0x43203a726f727245,%rax
    3915:	3a 20 43 
    3918:	48 ba 6c 69 65 6e 74 	movabs $0x6e7520746e65696c,%rdx
    391f:	20 75 6e 
    3922:	49 89 07             	mov    %rax,(%r15)
    3925:	49 89 57 08          	mov    %rdx,0x8(%r15)
    3929:	48 b8 61 62 6c 65 20 	movabs $0x206f7420656c6261,%rax
    3930:	74 6f 20 
    3933:	48 ba 72 65 61 64 20 	movabs $0x6165682064616572,%rdx
    393a:	68 65 61 
    393d:	49 89 47 10          	mov    %rax,0x10(%r15)
    3941:	49 89 57 18          	mov    %rdx,0x18(%r15)
    3945:	48 b8 64 65 72 73 20 	movabs $0x6f72662073726564,%rax
    394c:	66 72 6f 
    394f:	48 ba 6d 20 73 65 72 	movabs $0x726576726573206d,%rdx
    3956:	76 65 72 
    3959:	49 89 47 20          	mov    %rax,0x20(%r15)
    395d:	49 89 57 28          	mov    %rdx,0x28(%r15)
    3961:	41 c6 47 30 00       	movb   $0x0,0x30(%r15)
    3966:	44 89 f7             	mov    %r14d,%edi
    3969:	e8 62 e7 ff ff       	callq  20d0 <close@plt>
    396e:	b8 ff ff ff ff       	mov    $0xffffffff,%eax
    3973:	e9 2b fd ff ff       	jmpq   36a3 <submitr+0x53c>
    3978:	e8 23 e7 ff ff       	callq  20a0 <__stack_chk_fail@plt>

000000000000397d <init_timeout>:
    397d:	85 ff                	test   %edi,%edi
    397f:	75 01                	jne    3982 <init_timeout+0x5>
    3981:	c3                   	retq   
    3982:	53                   	push   %rbx
    3983:	89 fb                	mov    %edi,%ebx
    3985:	48 8d 35 84 f6 ff ff 	lea    -0x97c(%rip),%rsi        # 3010 <sigalrm_handler>
    398c:	bf 0e 00 00 00       	mov    $0xe,%edi
    3991:	e8 7a e7 ff ff       	callq  2110 <signal@plt>
    3996:	85 db                	test   %ebx,%ebx
    3998:	b8 00 00 00 00       	mov    $0x0,%eax
    399d:	0f 49 c3             	cmovns %ebx,%eax
    39a0:	89 c7                	mov    %eax,%edi
    39a2:	e8 19 e7 ff ff       	callq  20c0 <alarm@plt>
    39a7:	5b                   	pop    %rbx
    39a8:	c3                   	retq   

00000000000039a9 <init_driver>:
    39a9:	41 54                	push   %r12
    39ab:	55                   	push   %rbp
    39ac:	53                   	push   %rbx
    39ad:	48 83 ec 20          	sub    $0x20,%rsp
    39b1:	48 89 fd             	mov    %rdi,%rbp
    39b4:	64 48 8b 04 25 28 00 	mov    %fs:0x28,%rax
    39bb:	00 00 
    39bd:	48 89 44 24 18       	mov    %rax,0x18(%rsp)
    39c2:	31 c0                	xor    %eax,%eax
    39c4:	be 01 00 00 00       	mov    $0x1,%esi
    39c9:	bf 0d 00 00 00       	mov    $0xd,%edi
    39ce:	e8 3d e7 ff ff       	callq  2110 <signal@plt>
    39d3:	be 01 00 00 00       	mov    $0x1,%esi
    39d8:	bf 1d 00 00 00       	mov    $0x1d,%edi
    39dd:	e8 2e e7 ff ff       	callq  2110 <signal@plt>
    39e2:	be 01 00 00 00       	mov    $0x1,%esi
    39e7:	bf 1d 00 00 00       	mov    $0x1d,%edi
    39ec:	e8 1f e7 ff ff       	callq  2110 <signal@plt>
    39f1:	ba 00 00 00 00       	mov    $0x0,%edx
    39f6:	be 01 00 00 00       	mov    $0x1,%esi
    39fb:	bf 02 00 00 00       	mov    $0x2,%edi
    3a00:	e8 db e7 ff ff       	callq  21e0 <socket@plt>
    3a05:	85 c0                	test   %eax,%eax
    3a07:	0f 88 97 00 00 00    	js     3aa4 <init_driver+0xfb>
    3a0d:	89 c3                	mov    %eax,%ebx
    3a0f:	48 8d 3d 30 0d 00 00 	lea    0xd30(%rip),%rdi        # 4746 <array.0+0x556>
    3a16:	e8 05 e7 ff ff       	callq  2120 <gethostbyname@plt>
    3a1b:	48 85 c0             	test   %rax,%rax
    3a1e:	0f 84 cc 00 00 00    	je     3af0 <init_driver+0x147>
    3a24:	49 89 e4             	mov    %rsp,%r12
    3a27:	48 c7 04 24 00 00 00 	movq   $0x0,(%rsp)
    3a2e:	00 
    3a2f:	48 c7 44 24 08 00 00 	movq   $0x0,0x8(%rsp)
    3a36:	00 00 
    3a38:	66 c7 04 24 02 00    	movw   $0x2,(%rsp)
    3a3e:	48 63 50 14          	movslq 0x14(%rax),%rdx
    3a42:	48 8b 40 18          	mov    0x18(%rax),%rax
    3a46:	48 8d 7c 24 04       	lea    0x4(%rsp),%rdi
    3a4b:	48 8b 30             	mov    (%rax),%rsi
    3a4e:	e8 0d e7 ff ff       	callq  2160 <memmove@plt>
    3a53:	66 c7 44 24 02 2c be 	movw   $0xbe2c,0x2(%rsp)
    3a5a:	ba 10 00 00 00       	mov    $0x10,%edx
    3a5f:	4c 89 e6             	mov    %r12,%rsi
    3a62:	89 df                	mov    %ebx,%edi
    3a64:	e8 47 e7 ff ff       	callq  21b0 <connect@plt>
    3a69:	85 c0                	test   %eax,%eax
    3a6b:	0f 88 e7 00 00 00    	js     3b58 <init_driver+0x1af>
    3a71:	89 df                	mov    %ebx,%edi
    3a73:	e8 58 e6 ff ff       	callq  20d0 <close@plt>
    3a78:	66 c7 45 00 4f 4b    	movw   $0x4b4f,0x0(%rbp)
    3a7e:	c6 45 02 00          	movb   $0x0,0x2(%rbp)
    3a82:	b8 00 00 00 00       	mov    $0x0,%eax
    3a87:	48 8b 54 24 18       	mov    0x18(%rsp),%rdx
    3a8c:	64 48 2b 14 25 28 00 	sub    %fs:0x28,%rdx
    3a93:	00 00 
    3a95:	0f 85 e9 00 00 00    	jne    3b84 <init_driver+0x1db>
    3a9b:	48 83 c4 20          	add    $0x20,%rsp
    3a9f:	5b                   	pop    %rbx
    3aa0:	5d                   	pop    %rbp
    3aa1:	41 5c                	pop    %r12
    3aa3:	c3                   	retq   
    3aa4:	48 b8 45 72 72 6f 72 	movabs $0x43203a726f727245,%rax
    3aab:	3a 20 43 
    3aae:	48 ba 6c 69 65 6e 74 	movabs $0x6e7520746e65696c,%rdx
    3ab5:	20 75 6e 
    3ab8:	48 89 45 00          	mov    %rax,0x0(%rbp)
    3abc:	48 89 55 08          	mov    %rdx,0x8(%rbp)
    3ac0:	48 b8 61 62 6c 65 20 	movabs $0x206f7420656c6261,%rax
    3ac7:	74 6f 20 
    3aca:	48 ba 63 72 65 61 74 	movabs $0x7320657461657263,%rdx
    3ad1:	65 20 73 
    3ad4:	48 89 45 10          	mov    %rax,0x10(%rbp)
    3ad8:	48 89 55 18          	mov    %rdx,0x18(%rbp)
    3adc:	c7 45 20 6f 63 6b 65 	movl   $0x656b636f,0x20(%rbp)
    3ae3:	66 c7 45 24 74 00    	movw   $0x74,0x24(%rbp)
    3ae9:	b8 ff ff ff ff       	mov    $0xffffffff,%eax
    3aee:	eb 97                	jmp    3a87 <init_driver+0xde>
    3af0:	48 b8 45 72 72 6f 72 	movabs $0x44203a726f727245,%rax
    3af7:	3a 20 44 
    3afa:	48 ba 4e 53 20 69 73 	movabs $0x6e7520736920534e,%rdx
    3b01:	20 75 6e 
    3b04:	48 89 45 00          	mov    %rax,0x0(%rbp)
    3b08:	48 89 55 08          	mov    %rdx,0x8(%rbp)
    3b0c:	48 b8 61 62 6c 65 20 	movabs $0x206f7420656c6261,%rax
    3b13:	74 6f 20 
    3b16:	48 ba 72 65 73 6f 6c 	movabs $0x2065766c6f736572,%rdx
    3b1d:	76 65 20 
    3b20:	48 89 45 10          	mov    %rax,0x10(%rbp)
    3b24:	48 89 55 18          	mov    %rdx,0x18(%rbp)
    3b28:	48 b8 73 65 72 76 65 	movabs $0x6120726576726573,%rax
    3b2f:	72 20 61 
    3b32:	48 89 45 20          	mov    %rax,0x20(%rbp)
    3b36:	c7 45 28 64 64 72 65 	movl   $0x65726464,0x28(%rbp)
    3b3d:	66 c7 45 2c 73 73    	movw   $0x7373,0x2c(%rbp)
    3b43:	c6 45 2e 00          	movb   $0x0,0x2e(%rbp)
    3b47:	89 df                	mov    %ebx,%edi
    3b49:	e8 82 e5 ff ff       	callq  20d0 <close@plt>
    3b4e:	b8 ff ff ff ff       	mov    $0xffffffff,%eax
    3b53:	e9 2f ff ff ff       	jmpq   3a87 <init_driver+0xde>
    3b58:	48 8d 15 e7 0b 00 00 	lea    0xbe7(%rip),%rdx        # 4746 <array.0+0x556>
    3b5f:	48 8d 35 92 0b 00 00 	lea    0xb92(%rip),%rsi        # 46f8 <array.0+0x508>
    3b66:	48 89 ef             	mov    %rbp,%rdi
    3b69:	b8 00 00 00 00       	mov    $0x0,%eax
    3b6e:	e8 1d e6 ff ff       	callq  2190 <sprintf@plt>
    3b73:	89 df                	mov    %ebx,%edi
    3b75:	e8 56 e5 ff ff       	callq  20d0 <close@plt>
    3b7a:	b8 ff ff ff ff       	mov    $0xffffffff,%eax
    3b7f:	e9 03 ff ff ff       	jmpq   3a87 <init_driver+0xde>
    3b84:	e8 17 e5 ff ff       	callq  20a0 <__stack_chk_fail@plt>

0000000000003b89 <driver_post>:
    3b89:	53                   	push   %rbx
    3b8a:	4c 89 c3             	mov    %r8,%rbx
    3b8d:	85 c9                	test   %ecx,%ecx
    3b8f:	75 17                	jne    3ba8 <driver_post+0x1f>
    3b91:	48 85 ff             	test   %rdi,%rdi
    3b94:	74 05                	je     3b9b <driver_post+0x12>
    3b96:	80 3f 00             	cmpb   $0x0,(%rdi)
    3b99:	75 31                	jne    3bcc <driver_post+0x43>
    3b9b:	66 c7 03 4f 4b       	movw   $0x4b4f,(%rbx)
    3ba0:	c6 43 02 00          	movb   $0x0,0x2(%rbx)
    3ba4:	89 c8                	mov    %ecx,%eax
    3ba6:	5b                   	pop    %rbx
    3ba7:	c3                   	retq   
    3ba8:	48 89 d6             	mov    %rdx,%rsi
    3bab:	48 8d 3d a2 0b 00 00 	lea    0xba2(%rip),%rdi        # 4754 <array.0+0x564>
    3bb2:	b8 00 00 00 00       	mov    $0x0,%eax
    3bb7:	e8 f4 e4 ff ff       	callq  20b0 <printf@plt>
    3bbc:	66 c7 03 4f 4b       	movw   $0x4b4f,(%rbx)
    3bc1:	c6 43 02 00          	movb   $0x0,0x2(%rbx)
    3bc5:	b8 00 00 00 00       	mov    $0x0,%eax
    3bca:	eb da                	jmp    3ba6 <driver_post+0x1d>
    3bcc:	41 50                	push   %r8
    3bce:	52                   	push   %rdx
    3bcf:	4c 8d 0d 95 0b 00 00 	lea    0xb95(%rip),%r9        # 476b <array.0+0x57b>
    3bd6:	49 89 f0             	mov    %rsi,%r8
    3bd9:	48 89 f9             	mov    %rdi,%rcx
    3bdc:	48 8d 15 90 0b 00 00 	lea    0xb90(%rip),%rdx        # 4773 <array.0+0x583>
    3be3:	be be 2c 00 00       	mov    $0x2cbe,%esi
    3be8:	48 8d 3d 57 0b 00 00 	lea    0xb57(%rip),%rdi        # 4746 <array.0+0x556>
    3bef:	e8 73 f5 ff ff       	callq  3167 <submitr>
    3bf4:	48 83 c4 10          	add    $0x10,%rsp
    3bf8:	eb ac                	jmp    3ba6 <driver_post+0x1d>
    3bfa:	66 0f 1f 44 00 00    	nopw   0x0(%rax,%rax,1)

0000000000003c00 <__libc_csu_init>:
    3c00:	f3 0f 1e fa          	repz nop %edx
    3c04:	41 57                	push   %r15
    3c06:	4c 8d 3d db 21 00 00 	lea    0x21db(%rip),%r15        # 5de8 <__frame_dummy_init_array_entry>
    3c0d:	41 56                	push   %r14
    3c0f:	49 89 d6             	mov    %rdx,%r14
    3c12:	41 55                	push   %r13
    3c14:	49 89 f5             	mov    %rsi,%r13
    3c17:	41 54                	push   %r12
    3c19:	41 89 fc             	mov    %edi,%r12d
    3c1c:	55                   	push   %rbp
    3c1d:	48 8d 2d cc 21 00 00 	lea    0x21cc(%rip),%rbp        # 5df0 <__init_array_end>
    3c24:	53                   	push   %rbx
    3c25:	4c 29 fd             	sub    %r15,%rbp
    3c28:	48 83 ec 08          	sub    $0x8,%rsp
    3c2c:	e8 cf e3 ff ff       	callq  2000 <_init>
    3c31:	48 c1 fd 03          	sar    $0x3,%rbp
    3c35:	74 1f                	je     3c56 <__libc_csu_init+0x56>
    3c37:	31 db                	xor    %ebx,%ebx
    3c39:	0f 1f 80 00 00 00 00 	nopl   0x0(%rax)
    3c40:	4c 89 f2             	mov    %r14,%rdx
    3c43:	4c 89 ee             	mov    %r13,%rsi
    3c46:	44 89 e7             	mov    %r12d,%edi
    3c49:	41 ff 14 df          	callq  *(%r15,%rbx,8)
    3c4d:	48 83 c3 01          	add    $0x1,%rbx
    3c51:	48 39 dd             	cmp    %rbx,%rbp
    3c54:	75 ea                	jne    3c40 <__libc_csu_init+0x40>
    3c56:	48 83 c4 08          	add    $0x8,%rsp
    3c5a:	5b                   	pop    %rbx
    3c5b:	5d                   	pop    %rbp
    3c5c:	41 5c                	pop    %r12
    3c5e:	41 5d                	pop    %r13
    3c60:	41 5e                	pop    %r14
    3c62:	41 5f                	pop    %r15
    3c64:	c3                   	retq   
    3c65:	66 66 2e 0f 1f 84 00 	data16 nopw %cs:0x0(%rax,%rax,1)
    3c6c:	00 00 00 00 

0000000000003c70 <__libc_csu_fini>:
    3c70:	f3 0f 1e fa          	repz nop %edx
    3c74:	c3                   	retq   

Disassembly of section .fini:

0000000000003c78 <_fini>:
    3c78:	f3 0f 1e fa          	repz nop %edx
    3c7c:	48 83 ec 08          	sub    $0x8,%rsp
    3c80:	48 83 c4 08          	add    $0x8,%rsp
    3c84:	c3                   	retq   
